

Microchip MPLAB XC8 Assembler V2.40 build 20220703182018 
                                                                                               Wed May 31 20:26:47 2023

Microchip MPLAB XC8 C Compiler v2.40 (Free license) build 20220703182018 Og1 
     1                           	processor	16F887
     2                           	pagewidth 120
     3                           	opt	flic
     4                           	psect	idataBANK1,global,class=CODE,delta=2,noexec
     5                           	psect	idataBANK3,global,class=CODE,delta=2,noexec
     6                           	psect	strings,global,class=STRING,delta=2,noexec
     7                           	psect	cinit,global,class=CODE,merge=1,delta=2
     8                           	psect	dataBANK1,global,class=BANK1,space=1,delta=1,noexec
     9                           	psect	bssBANK3,global,class=BANK3,space=1,delta=1,noexec
    10                           	psect	dataBANK3,global,class=BANK3,space=1,delta=1,noexec
    11                           	psect	cstackBANK3,global,class=BANK3,space=1,delta=1,noexec
    12                           	psect	cstackBANK2,global,class=BANK2,space=1,delta=1,noexec
    13                           	psect	cstackBANK1,global,class=BANK1,space=1,delta=1,noexec
    14                           	psect	cstackCOMMON,global,class=COMMON,space=1,delta=1,noexec
    15                           	psect	cstackBANK0,global,class=BANK0,space=1,delta=1,noexec
    16                           	psect	maintext,global,class=CODE,split=1,delta=2
    17                           	psect	text1,local,class=CODE,merge=1,delta=2
    18                           	psect	text2,local,class=CODE,merge=1,delta=2
    19                           	psect	text3,local,class=CODE,merge=1,delta=2
    20                           	psect	text4,local,class=CODE,merge=1,delta=2
    21                           	psect	text5,local,class=CODE,merge=1,delta=2
    22                           	psect	text6,local,class=CODE,merge=1,delta=2
    23                           	psect	text7,local,class=CODE,merge=1,delta=2
    24                           	psect	text8,local,class=CODE,merge=1,delta=2
    25                           	psect	text9,local,class=CODE,merge=1,delta=2
    26                           	psect	text10,local,class=CODE,merge=1,delta=2
    27                           	psect	text11,local,class=CODE,merge=1,delta=2
    28                           	psect	text12,local,class=CODE,merge=1,delta=2
    29                           	psect	intentry,global,class=CODE,delta=2
    30                           	psect	text13,local,class=CODE,merge=1,delta=2
    31                           	psect	text14,local,class=CODE,merge=1,delta=2,group=2
    32                           	psect	text15,local,class=CODE,merge=1,delta=2,group=2
    33                           	psect	text16,local,class=CODE,merge=1,delta=2,group=1
    34                           	psect	text17,local,class=CODE,merge=1,delta=2
    35                           	psect	text18,local,class=CODE,merge=1,delta=2,group=1
    36                           	psect	text19,local,class=CODE,merge=1,delta=2,group=1
    37                           	psect	text20,local,class=CODE,merge=1,delta=2,group=1
    38                           	psect	text21,local,class=CODE,merge=1,delta=2,group=1
    39                           	psect	text22,local,class=CODE,merge=1,delta=2,group=1
    40                           	psect	text23,local,class=CODE,merge=1,delta=2,group=1
    41                           	psect	text24,local,class=CODE,merge=1,delta=2,group=2
    42                           	psect	text25,local,class=CODE,merge=1,delta=2,group=2
    43                           	psect	text26,local,class=CODE,merge=1,delta=2,group=1
    44                           	psect	text27,local,class=CODE,merge=1,delta=2,group=1
    45                           	psect	text28,local,class=CODE,merge=1,delta=2
    46                           	psect	text29,local,class=CODE,merge=1,delta=2
    47                           	psect	text30,local,class=CODE,merge=1,delta=2
    48                           	psect	text31,local,class=CODE,merge=1,delta=2
    49                           	psect	text32,local,class=CODE,merge=1,delta=2
    50                           	psect	text33,local,class=CODE,merge=1,delta=2
    51                           	psect	idloc,global,abs,ovrld,class=IDLOC,space=5,delta=2,noexec
    52                           	psect	config,global,abs,ovrld,class=CONFIG,space=4,delta=2,noexec
    53                           	dabs	1,0x7E,2
    54     0000                     
    55                           ; Version 2.40
    56                           ; Generated 17/11/2021 GMT
    57                           ; 
    58                           ; Copyright © 2021, Microchip Technology Inc. and its subsidiaries ("Microchip")
    59                           ; All rights reserved.
    60                           ; 
    61                           ; This software is developed by Microchip Technology Inc. and its subsidiaries ("Microch
      +                          ip").
    62                           ; 
    63                           ; Redistribution and use in source and binary forms, with or without modification, are
    64                           ; permitted provided that the following conditions are met:
    65                           ; 
    66                           ;     1. Redistributions of source code must retain the above copyright notice, this lis
      +                          t of
    67                           ;        conditions and the following disclaimer.
    68                           ; 
    69                           ;     2. Redistributions in binary form must reproduce the above copyright notice, this 
      +                          list
    70                           ;        of conditions and the following disclaimer in the documentation and/or other
    71                           ;        materials provided with the distribution. Publication is not required when
    72                           ;        this file is used in an embedded application.
    73                           ; 
    74                           ;     3. Microchip's name may not be used to endorse or promote products derived from th
      +                          is
    75                           ;        software without specific prior written permission.
    76                           ; 
    77                           ; THIS SOFTWARE IS PROVIDED BY MICROCHIP "AS IS" AND ANY EXPRESS OR IMPLIED WARRANTIES,
    78                           ; INCLUDING, BUT NOT LIMITED TO, THE IMPLIED WARRANTIES OF MERCHANTABILITY AND FITNESS F
      +                          OR
    79                           ; PURPOSE ARE DISCLAIMED.  IN NO EVENT SHALL MICROCHIP BE LIABLE FOR ANY DIRECT, INDIREC
      +                          T,
    80                           ; INCIDENTAL, SPECIAL, EXEMPLARY, OR CONSEQUENTIAL DAMAGES (INCLUDING BUT NOT LIMITED TO
    81                           ; PROCUREMENT OF SUBSTITUTE GOODS OR SERVICES; LOSS OF USE, DATA OR PROFITS; OR BUSINESS
    82                           ; INTERRUPTION) HOWSOEVER CAUSED AND ON ANY THEORY OF LIABILITY, WHETHER IN CONTRACT, ST
      +                          RICT
    83                           ; LIABILITY, OR TORT (INCLUDING NEGLIGENCE OR OTHERWISE) ARISING IN ANY WAY OUT OF THE U
      +                          SE OF
    84                           ; THIS SOFTWARE, EVEN IF ADVISED OF THE POSSIBILITY OF SUCH DAMAGE.
    85                           ; 
    86                           ; 
    87                           ; Code-generator required, PIC16F887 Definitions
    88                           ; 
    89                           ; SFR Addresses
    90     0000                     	;# 
    91     0001                     	;# 
    92     0002                     	;# 
    93     0003                     	;# 
    94     0004                     	;# 
    95     0005                     	;# 
    96     0006                     	;# 
    97     0007                     	;# 
    98     0008                     	;# 
    99     0009                     	;# 
   100     000A                     	;# 
   101     000B                     	;# 
   102     000C                     	;# 
   103     000D                     	;# 
   104     000E                     	;# 
   105     000E                     	;# 
   106     000F                     	;# 
   107     0010                     	;# 
   108     0011                     	;# 
   109     0012                     	;# 
   110     0013                     	;# 
   111     0014                     	;# 
   112     0015                     	;# 
   113     0015                     	;# 
   114     0016                     	;# 
   115     0017                     	;# 
   116     0018                     	;# 
   117     0019                     	;# 
   118     001A                     	;# 
   119     001B                     	;# 
   120     001B                     	;# 
   121     001C                     	;# 
   122     001D                     	;# 
   123     001E                     	;# 
   124     001F                     	;# 
   125     0081                     	;# 
   126     0085                     	;# 
   127     0086                     	;# 
   128     0087                     	;# 
   129     0088                     	;# 
   130     0089                     	;# 
   131     008C                     	;# 
   132     008D                     	;# 
   133     008E                     	;# 
   134     008F                     	;# 
   135     0090                     	;# 
   136     0091                     	;# 
   137     0092                     	;# 
   138     0093                     	;# 
   139     0093                     	;# 
   140     0093                     	;# 
   141     0094                     	;# 
   142     0095                     	;# 
   143     0096                     	;# 
   144     0097                     	;# 
   145     0098                     	;# 
   146     0099                     	;# 
   147     009A                     	;# 
   148     009B                     	;# 
   149     009C                     	;# 
   150     009D                     	;# 
   151     009E                     	;# 
   152     009F                     	;# 
   153     0105                     	;# 
   154     0107                     	;# 
   155     0108                     	;# 
   156     0109                     	;# 
   157     010C                     	;# 
   158     010C                     	;# 
   159     010D                     	;# 
   160     010E                     	;# 
   161     010F                     	;# 
   162     0185                     	;# 
   163     0187                     	;# 
   164     0188                     	;# 
   165     0189                     	;# 
   166     018C                     	;# 
   167     018D                     	;# 
   168     0000                     	;# 
   169     0001                     	;# 
   170     0002                     	;# 
   171     0003                     	;# 
   172     0004                     	;# 
   173     0005                     	;# 
   174     0006                     	;# 
   175     0007                     	;# 
   176     0008                     	;# 
   177     0009                     	;# 
   178     000A                     	;# 
   179     000B                     	;# 
   180     000C                     	;# 
   181     000D                     	;# 
   182     000E                     	;# 
   183     000E                     	;# 
   184     000F                     	;# 
   185     0010                     	;# 
   186     0011                     	;# 
   187     0012                     	;# 
   188     0013                     	;# 
   189     0014                     	;# 
   190     0015                     	;# 
   191     0015                     	;# 
   192     0016                     	;# 
   193     0017                     	;# 
   194     0018                     	;# 
   195     0019                     	;# 
   196     001A                     	;# 
   197     001B                     	;# 
   198     001B                     	;# 
   199     001C                     	;# 
   200     001D                     	;# 
   201     001E                     	;# 
   202     001F                     	;# 
   203     0081                     	;# 
   204     0085                     	;# 
   205     0086                     	;# 
   206     0087                     	;# 
   207     0088                     	;# 
   208     0089                     	;# 
   209     008C                     	;# 
   210     008D                     	;# 
   211     008E                     	;# 
   212     008F                     	;# 
   213     0090                     	;# 
   214     0091                     	;# 
   215     0092                     	;# 
   216     0093                     	;# 
   217     0093                     	;# 
   218     0093                     	;# 
   219     0094                     	;# 
   220     0095                     	;# 
   221     0096                     	;# 
   222     0097                     	;# 
   223     0098                     	;# 
   224     0099                     	;# 
   225     009A                     	;# 
   226     009B                     	;# 
   227     009C                     	;# 
   228     009D                     	;# 
   229     009E                     	;# 
   230     009F                     	;# 
   231     0105                     	;# 
   232     0107                     	;# 
   233     0108                     	;# 
   234     0109                     	;# 
   235     010C                     	;# 
   236     010C                     	;# 
   237     010D                     	;# 
   238     010E                     	;# 
   239     010F                     	;# 
   240     0185                     	;# 
   241     0187                     	;# 
   242     0188                     	;# 
   243     0189                     	;# 
   244     018C                     	;# 
   245     018D                     	;# 
   246     0000                     	;# 
   247     0001                     	;# 
   248     0002                     	;# 
   249     0003                     	;# 
   250     0004                     	;# 
   251     0005                     	;# 
   252     0006                     	;# 
   253     0007                     	;# 
   254     0008                     	;# 
   255     0009                     	;# 
   256     000A                     	;# 
   257     000B                     	;# 
   258     000C                     	;# 
   259     000D                     	;# 
   260     000E                     	;# 
   261     000E                     	;# 
   262     000F                     	;# 
   263     0010                     	;# 
   264     0011                     	;# 
   265     0012                     	;# 
   266     0013                     	;# 
   267     0014                     	;# 
   268     0015                     	;# 
   269     0015                     	;# 
   270     0016                     	;# 
   271     0017                     	;# 
   272     0018                     	;# 
   273     0019                     	;# 
   274     001A                     	;# 
   275     001B                     	;# 
   276     001B                     	;# 
   277     001C                     	;# 
   278     001D                     	;# 
   279     001E                     	;# 
   280     001F                     	;# 
   281     0081                     	;# 
   282     0085                     	;# 
   283     0086                     	;# 
   284     0087                     	;# 
   285     0088                     	;# 
   286     0089                     	;# 
   287     008C                     	;# 
   288     008D                     	;# 
   289     008E                     	;# 
   290     008F                     	;# 
   291     0090                     	;# 
   292     0091                     	;# 
   293     0092                     	;# 
   294     0093                     	;# 
   295     0093                     	;# 
   296     0093                     	;# 
   297     0094                     	;# 
   298     0095                     	;# 
   299     0096                     	;# 
   300     0097                     	;# 
   301     0098                     	;# 
   302     0099                     	;# 
   303     009A                     	;# 
   304     009B                     	;# 
   305     009C                     	;# 
   306     009D                     	;# 
   307     009E                     	;# 
   308     009F                     	;# 
   309     0105                     	;# 
   310     0107                     	;# 
   311     0108                     	;# 
   312     0109                     	;# 
   313     010C                     	;# 
   314     010C                     	;# 
   315     010D                     	;# 
   316     010E                     	;# 
   317     010F                     	;# 
   318     0185                     	;# 
   319     0187                     	;# 
   320     0188                     	;# 
   321     0189                     	;# 
   322     018C                     	;# 
   323     018D                     	;# 
   324     0000                     	;# 
   325     0001                     	;# 
   326     0002                     	;# 
   327     0003                     	;# 
   328     0004                     	;# 
   329     0005                     	;# 
   330     0006                     	;# 
   331     0007                     	;# 
   332     0008                     	;# 
   333     0009                     	;# 
   334     000A                     	;# 
   335     000B                     	;# 
   336     000C                     	;# 
   337     000D                     	;# 
   338     000E                     	;# 
   339     000E                     	;# 
   340     000F                     	;# 
   341     0010                     	;# 
   342     0011                     	;# 
   343     0012                     	;# 
   344     0013                     	;# 
   345     0014                     	;# 
   346     0015                     	;# 
   347     0015                     	;# 
   348     0016                     	;# 
   349     0017                     	;# 
   350     0018                     	;# 
   351     0019                     	;# 
   352     001A                     	;# 
   353     001B                     	;# 
   354     001B                     	;# 
   355     001C                     	;# 
   356     001D                     	;# 
   357     001E                     	;# 
   358     001F                     	;# 
   359     0081                     	;# 
   360     0085                     	;# 
   361     0086                     	;# 
   362     0087                     	;# 
   363     0088                     	;# 
   364     0089                     	;# 
   365     008C                     	;# 
   366     008D                     	;# 
   367     008E                     	;# 
   368     008F                     	;# 
   369     0090                     	;# 
   370     0091                     	;# 
   371     0092                     	;# 
   372     0093                     	;# 
   373     0093                     	;# 
   374     0093                     	;# 
   375     0094                     	;# 
   376     0095                     	;# 
   377     0096                     	;# 
   378     0097                     	;# 
   379     0098                     	;# 
   380     0099                     	;# 
   381     009A                     	;# 
   382     009B                     	;# 
   383     009C                     	;# 
   384     009D                     	;# 
   385     009E                     	;# 
   386     009F                     	;# 
   387     0105                     	;# 
   388     0107                     	;# 
   389     0108                     	;# 
   390     0109                     	;# 
   391     010C                     	;# 
   392     010C                     	;# 
   393     010D                     	;# 
   394     010E                     	;# 
   395     010F                     	;# 
   396     0185                     	;# 
   397     0187                     	;# 
   398     0188                     	;# 
   399     0189                     	;# 
   400     018C                     	;# 
   401     018D                     	;# 
   402     0000                     	;# 
   403     0001                     	;# 
   404     0002                     	;# 
   405     0003                     	;# 
   406     0004                     	;# 
   407     0005                     	;# 
   408     0006                     	;# 
   409     0007                     	;# 
   410     0008                     	;# 
   411     0009                     	;# 
   412     000A                     	;# 
   413     000B                     	;# 
   414     000C                     	;# 
   415     000D                     	;# 
   416     000E                     	;# 
   417     000E                     	;# 
   418     000F                     	;# 
   419     0010                     	;# 
   420     0011                     	;# 
   421     0012                     	;# 
   422     0013                     	;# 
   423     0014                     	;# 
   424     0015                     	;# 
   425     0015                     	;# 
   426     0016                     	;# 
   427     0017                     	;# 
   428     0018                     	;# 
   429     0019                     	;# 
   430     001A                     	;# 
   431     001B                     	;# 
   432     001B                     	;# 
   433     001C                     	;# 
   434     001D                     	;# 
   435     001E                     	;# 
   436     001F                     	;# 
   437     0081                     	;# 
   438     0085                     	;# 
   439     0086                     	;# 
   440     0087                     	;# 
   441     0088                     	;# 
   442     0089                     	;# 
   443     008C                     	;# 
   444     008D                     	;# 
   445     008E                     	;# 
   446     008F                     	;# 
   447     0090                     	;# 
   448     0091                     	;# 
   449     0092                     	;# 
   450     0093                     	;# 
   451     0093                     	;# 
   452     0093                     	;# 
   453     0094                     	;# 
   454     0095                     	;# 
   455     0096                     	;# 
   456     0097                     	;# 
   457     0098                     	;# 
   458     0099                     	;# 
   459     009A                     	;# 
   460     009B                     	;# 
   461     009C                     	;# 
   462     009D                     	;# 
   463     009E                     	;# 
   464     009F                     	;# 
   465     0105                     	;# 
   466     0107                     	;# 
   467     0108                     	;# 
   468     0109                     	;# 
   469     010C                     	;# 
   470     010C                     	;# 
   471     010D                     	;# 
   472     010E                     	;# 
   473     010F                     	;# 
   474     0185                     	;# 
   475     0187                     	;# 
   476     0188                     	;# 
   477     0189                     	;# 
   478     018C                     	;# 
   479     018D                     	;# 
   480     0000                     	;# 
   481     0001                     	;# 
   482     0002                     	;# 
   483     0003                     	;# 
   484     0004                     	;# 
   485     0005                     	;# 
   486     0006                     	;# 
   487     0007                     	;# 
   488     0008                     	;# 
   489     0009                     	;# 
   490     000A                     	;# 
   491     000B                     	;# 
   492     000C                     	;# 
   493     000D                     	;# 
   494     000E                     	;# 
   495     000E                     	;# 
   496     000F                     	;# 
   497     0010                     	;# 
   498     0011                     	;# 
   499     0012                     	;# 
   500     0013                     	;# 
   501     0014                     	;# 
   502     0015                     	;# 
   503     0015                     	;# 
   504     0016                     	;# 
   505     0017                     	;# 
   506     0018                     	;# 
   507     0019                     	;# 
   508     001A                     	;# 
   509     001B                     	;# 
   510     001B                     	;# 
   511     001C                     	;# 
   512     001D                     	;# 
   513     001E                     	;# 
   514     001F                     	;# 
   515     0081                     	;# 
   516     0085                     	;# 
   517     0086                     	;# 
   518     0087                     	;# 
   519     0088                     	;# 
   520     0089                     	;# 
   521     008C                     	;# 
   522     008D                     	;# 
   523     008E                     	;# 
   524     008F                     	;# 
   525     0090                     	;# 
   526     0091                     	;# 
   527     0092                     	;# 
   528     0093                     	;# 
   529     0093                     	;# 
   530     0093                     	;# 
   531     0094                     	;# 
   532     0095                     	;# 
   533     0096                     	;# 
   534     0097                     	;# 
   535     0098                     	;# 
   536     0099                     	;# 
   537     009A                     	;# 
   538     009B                     	;# 
   539     009C                     	;# 
   540     009D                     	;# 
   541     009E                     	;# 
   542     009F                     	;# 
   543     0105                     	;# 
   544     0107                     	;# 
   545     0108                     	;# 
   546     0109                     	;# 
   547     010C                     	;# 
   548     010C                     	;# 
   549     010D                     	;# 
   550     010E                     	;# 
   551     010F                     	;# 
   552     0185                     	;# 
   553     0187                     	;# 
   554     0188                     	;# 
   555     0189                     	;# 
   556     018C                     	;# 
   557     018D                     	;# 
   558     0000                     	;# 
   559     0001                     	;# 
   560     0002                     	;# 
   561     0003                     	;# 
   562     0004                     	;# 
   563     0005                     	;# 
   564     0006                     	;# 
   565     0007                     	;# 
   566     0008                     	;# 
   567     0009                     	;# 
   568     000A                     	;# 
   569     000B                     	;# 
   570     000C                     	;# 
   571     000D                     	;# 
   572     000E                     	;# 
   573     000E                     	;# 
   574     000F                     	;# 
   575     0010                     	;# 
   576     0011                     	;# 
   577     0012                     	;# 
   578     0013                     	;# 
   579     0014                     	;# 
   580     0015                     	;# 
   581     0015                     	;# 
   582     0016                     	;# 
   583     0017                     	;# 
   584     0018                     	;# 
   585     0019                     	;# 
   586     001A                     	;# 
   587     001B                     	;# 
   588     001B                     	;# 
   589     001C                     	;# 
   590     001D                     	;# 
   591     001E                     	;# 
   592     001F                     	;# 
   593     0081                     	;# 
   594     0085                     	;# 
   595     0086                     	;# 
   596     0087                     	;# 
   597     0088                     	;# 
   598     0089                     	;# 
   599     008C                     	;# 
   600     008D                     	;# 
   601     008E                     	;# 
   602     008F                     	;# 
   603     0090                     	;# 
   604     0091                     	;# 
   605     0092                     	;# 
   606     0093                     	;# 
   607     0093                     	;# 
   608     0093                     	;# 
   609     0094                     	;# 
   610     0095                     	;# 
   611     0096                     	;# 
   612     0097                     	;# 
   613     0098                     	;# 
   614     0099                     	;# 
   615     009A                     	;# 
   616     009B                     	;# 
   617     009C                     	;# 
   618     009D                     	;# 
   619     009E                     	;# 
   620     009F                     	;# 
   621     0105                     	;# 
   622     0107                     	;# 
   623     0108                     	;# 
   624     0109                     	;# 
   625     010C                     	;# 
   626     010C                     	;# 
   627     010D                     	;# 
   628     010E                     	;# 
   629     010F                     	;# 
   630     0185                     	;# 
   631     0187                     	;# 
   632     0188                     	;# 
   633     0189                     	;# 
   634     018C                     	;# 
   635     018D                     	;# 
   636                           
   637                           	psect	idataBANK1
   638     0003                     __pidataBANK1:
   639                           
   640                           ;initializer for _TMR0_Pre
   641     0003  34B9               	retlw	185
   642                           
   643                           	psect	idataBANK3
   644     13A0                     __pidataBANK3:
   645                           
   646                           ;initializer for _Flag_3
   647     13A0  3401               	retlw	1
   648                           
   649                           ;initializer for _Flag_2
   650     13A1  3401               	retlw	1
   651     000B                     _INTCONbits	set	11
   652     001B                     _CCPR2L	set	27
   653     0015                     _CCPR1L	set	21
   654     0012                     _T2CONbits	set	18
   655     000C                     _PIR1bits	set	12
   656     001D                     _CCP2CONbits	set	29
   657     0017                     _CCP1CONbits	set	23
   658     001D                     _CCP2CON	set	29
   659     0017                     _CCP1CON	set	23
   660     001A                     _RCREG	set	26
   661     0019                     _TXREG	set	25
   662     0018                     _RCSTAbits	set	24
   663     001F                     _ADCON0	set	31
   664     001F                     _ADCON0bits	set	31
   665     0009                     _PORTE	set	9
   666     0008                     _PORTD	set	8
   667     0007                     _PORTC	set	7
   668     0005                     _PORTA	set	5
   669     0008                     _PORTDbits	set	8
   670     001E                     _ADRESH	set	30
   671     0006                     _PORTBbits	set	6
   672     0006                     _PORTB	set	6
   673     0064                     _TXIF	set	100
   674     005F                     _GIE	set	95
   675     005E                     _PEIE	set	94
   676     005B                     _RBIE	set	91
   677     005D                     _T0IE	set	93
   678     005A                     _T0IF	set	90
   679     0065                     _RCIF	set	101
   680     0032                     _RB2	set	50
   681     0031                     _RB1	set	49
   682     0066                     _ADIF	set	102
   683     0030                     _RB0	set	48
   684     0058                     _RBIF	set	88
   685     009D                     _PSTRCONbits	set	157
   686     0092                     _PR2	set	146
   687     008C                     _PIE1bits	set	140
   688     0098                     _TXSTAbits	set	152
   689     0099                     _SPBRG	set	153
   690     009A                     _SPBRGH	set	154
   691     009F                     _ADCON1bits	set	159
   692     008F                     _OSCCONbits	set	143
   693     0081                     _OPTION_REGbits	set	129
   694     0089                     _TRISE	set	137
   695     0088                     _TRISD	set	136
   696     0087                     _TRISC	set	135
   697     0096                     _IOCB	set	150
   698     0086                     _TRISB	set	134
   699     0085                     _TRISA	set	133
   700     0466                     _ADIE	set	1126
   701     010C                     _EEDAT	set	268
   702     010D                     _EEADR	set	269
   703     018D                     _EECON2	set	397
   704     018C                     _EECON1bits	set	396
   705     0189                     _ANSELH	set	393
   706     0188                     _ANSEL	set	392
   707                           
   708                           	psect	strings
   709     0800                     __pstrings:
   710     0800                     stringtab:
   711     0800                     __stringtab:
   712                           
   713                           ;	String table - string pointers are 1 byte each
   714     0800  1BFF               	btfsc	btemp+1,7
   715     0801  280A               	ljmp	stringcode
   716     0802  1383               	bcf	3,7
   717     0803  187F               	btfsc	btemp+1,0
   718     0804  1783               	bsf	3,7
   719     0805  0800               	movf	0,w
   720     0806  0A84               	incf	4,f
   721     0807  1903               	skipnz
   722     0808  0AFF               	incf	btemp+1,f
   723     0809  0008               	return
   724     080A                     stringcode:
   725     080A                     stringdir:
   726     080A  3008               	movlw	high stringdir
   727     080B  008A               	movwf	10
   728     080C  0804               	movf	4,w
   729     080D  0A84               	incf	4,f
   730     080E  0782               	addwf	2,f
   731     080F                     __stringbase:
   732     080F  3400               	retlw	0
   733     0810                     __end_of__stringtab:
   734     0810                     STR_2:
   735     0810  3450               	retlw	80	;'P'
   736     0811  3472               	retlw	114	;'r'
   737     0812  3465               	retlw	101	;'e'
   738     0813  3473               	retlw	115	;'s'
   739     0814  3469               	retlw	105	;'i'
   740     0815  346F               	retlw	111	;'o'
   741     0816  346E               	retlw	110	;'n'
   742     0817  3465               	retlw	101	;'e'
   743     0818  3420               	retlw	32	;' '
   744     0819  3442               	retlw	66	;'B'
   745     081A  346F               	retlw	111	;'o'
   746     081B  3474               	retlw	116	;'t'
   747     081C  346F               	retlw	111	;'o'
   748     081D  346E               	retlw	110	;'n'
   749     081E  3420               	retlw	32	;' '
   750     081F  3432               	retlw	50	;'2'
   751     0820  3420               	retlw	32	;' '
   752     0821  3470               	retlw	112	;'p'
   753     0822  3461               	retlw	97	;'a'
   754     0823  3472               	retlw	114	;'r'
   755     0824  3461               	retlw	97	;'a'
   756     0825  3420               	retlw	32	;' '
   757     0826  3467               	retlw	103	;'g'
   758     0827  3475               	retlw	117	;'u'
   759     0828  3461               	retlw	97	;'a'
   760     0829  3472               	retlw	114	;'r'
   761     082A  3464               	retlw	100	;'d'
   762     082B  3461               	retlw	97	;'a'
   763     082C  3472               	retlw	114	;'r'
   764     082D  3420               	retlw	32	;' '
   765     082E  3470               	retlw	112	;'p'
   766     082F  346F               	retlw	111	;'o'
   767     0830  3473               	retlw	115	;'s'
   768     0831  3469               	retlw	105	;'i'
   769     0832  3463               	retlw	99	;'c'
   770     0833  3469               	retlw	105	;'i'
   771     0834  346F               	retlw	111	;'o'
   772     0835  346E               	retlw	110	;'n'
   773     0836  3420               	retlw	32	;' '
   774     0837  3479               	retlw	121	;'y'
   775     0838  3420               	retlw	32	;' '
   776     0839  3462               	retlw	98	;'b'
   777     083A  346F               	retlw	111	;'o'
   778     083B  3474               	retlw	116	;'t'
   779     083C  346F               	retlw	111	;'o'
   780     083D  346E               	retlw	110	;'n'
   781     083E  3420               	retlw	32	;' '
   782     083F  3433               	retlw	51	;'3'
   783     0840  3420               	retlw	32	;' '
   784     0841  3470               	retlw	112	;'p'
   785     0842  3461               	retlw	97	;'a'
   786     0843  3472               	retlw	114	;'r'
   787     0844  3461               	retlw	97	;'a'
   788     0845  3420               	retlw	32	;' '
   789     0846  346C               	retlw	108	;'l'
   790     0847  346C               	retlw	108	;'l'
   791     0848  3461               	retlw	97	;'a'
   792     0849  346D               	retlw	109	;'m'
   793     084A  3461               	retlw	97	;'a'
   794     084B  3472               	retlw	114	;'r'
   795     084C  3420               	retlw	32	;' '
   796     084D  3461               	retlw	97	;'a'
   797     084E  3420               	retlw	32	;' '
   798     084F  3470               	retlw	112	;'p'
   799     0850  346F               	retlw	111	;'o'
   800     0851  3473               	retlw	115	;'s'
   801     0852  3469               	retlw	105	;'i'
   802     0853  3463               	retlw	99	;'c'
   803     0854  3469               	retlw	105	;'i'
   804     0855  346F               	retlw	111	;'o'
   805     0856  346E               	retlw	110	;'n'
   806     0857  3420               	retlw	32	;' '
   807     0858  340A               	retlw	10
   808     0859  3400               	retlw	0
   809     085A                     STR_6:
   810     085A  344D               	retlw	77	;'M'
   811     085B  3465               	retlw	101	;'e'
   812     085C  346E               	retlw	110	;'n'
   813     085D  3475               	retlw	117	;'u'
   814     085E  3420               	retlw	32	;' '
   815     085F  3455               	retlw	85	;'U'
   816     0860  3441               	retlw	65	;'A'
   817     0861  3452               	retlw	82	;'R'
   818     0862  3454               	retlw	84	;'T'
   819     0863  3420               	retlw	32	;' '
   820     0864  340A               	retlw	10
   821     0865  3461               	retlw	97	;'a'
   822     0866  342E               	retlw	46	;'.'
   823     0867  3420               	retlw	32	;' '
   824     0868  3452               	retlw	82	;'R'
   825     0869  3465               	retlw	101	;'e'
   826     086A  3463               	retlw	99	;'c'
   827     086B  3469               	retlw	105	;'i'
   828     086C  3462               	retlw	98	;'b'
   829     086D  3469               	retlw	105	;'i'
   830     086E  3472               	retlw	114	;'r'
   831     086F  3420               	retlw	32	;' '
   832     0870  3463               	retlw	99	;'c'
   833     0871  346F               	retlw	111	;'o'
   834     0872  346D               	retlw	109	;'m'
   835     0873  3461               	retlw	97	;'a'
   836     0874  346E               	retlw	110	;'n'
   837     0875  3464               	retlw	100	;'d'
   838     0876  346F               	retlw	111	;'o'
   839     0877  3473               	retlw	115	;'s'
   840     0878  342C               	retlw	44	;','
   841     0879  3420               	retlw	32	;' '
   842     087A  3462               	retlw	98	;'b'
   843     087B  342E               	retlw	46	;'.'
   844     087C  3420               	retlw	32	;' '
   845     087D  3453               	retlw	83	;'S'
   846     087E  3461               	retlw	97	;'a'
   847     087F  346C               	retlw	108	;'l'
   848     0880  3469               	retlw	105	;'i'
   849     0881  3472               	retlw	114	;'r'
   850     0882  3420               	retlw	32	;' '
   851     0883  346D               	retlw	109	;'m'
   852     0884  346F               	retlw	111	;'o'
   853     0885  3464               	retlw	100	;'d'
   854     0886  346F               	retlw	111	;'o'
   855     0887  3420               	retlw	32	;' '
   856     0888  3455               	retlw	85	;'U'
   857     0889  3461               	retlw	97	;'a'
   858     088A  3472               	retlw	114	;'r'
   859     088B  3474               	retlw	116	;'t'
   860     088C  340A               	retlw	10
   861     088D  3400               	retlw	0
   862     088E                     STR_3:
   863     088E  3445               	retlw	69	;'E'
   864     088F  3473               	retlw	115	;'s'
   865     0890  3463               	retlw	99	;'c'
   866     0891  3472               	retlw	114	;'r'
   867     0892  3469               	retlw	105	;'i'
   868     0893  3462               	retlw	98	;'b'
   869     0894  3469               	retlw	105	;'i'
   870     0895  3465               	retlw	101	;'e'
   871     0896  346E               	retlw	110	;'n'
   872     0897  3464               	retlw	100	;'d'
   873     0898  346F               	retlw	111	;'o'
   874     0899  3420               	retlw	32	;' '
   875     089A  3445               	retlw	69	;'E'
   876     089B  3445               	retlw	69	;'E'
   877     089C  3450               	retlw	80	;'P'
   878     089D  3452               	retlw	82	;'R'
   879     089E  344F               	retlw	79	;'O'
   880     089F  344D               	retlw	77	;'M'
   881     08A0  3420               	retlw	32	;' '
   882     08A1  340A               	retlw	10
   883     08A2  3400               	retlw	0
   884     08A3                     STR_7:
   885     08A3  3449               	retlw	73	;'I'
   886     08A4  346E               	retlw	110	;'n'
   887     08A5  3467               	retlw	103	;'g'
   888     08A6  3472               	retlw	114	;'r'
   889     08A7  3465               	retlw	101	;'e'
   890     08A8  3473               	retlw	115	;'s'
   891     08A9  3465               	retlw	101	;'e'
   892     08AA  3420               	retlw	32	;' '
   893     08AB  3441               	retlw	65	;'A'
   894     08AC  346E               	retlw	110	;'n'
   895     08AD  3467               	retlw	103	;'g'
   896     08AE  3475               	retlw	117	;'u'
   897     08AF  346C               	retlw	108	;'l'
   898     08B0  346F               	retlw	111	;'o'
   899     08B1  3473               	retlw	115	;'s'
   900     08B2  343A               	retlw	58	;':'
   901     08B3  3420               	retlw	32	;' '
   902     08B4  340A               	retlw	10
   903     08B5  3400               	retlw	0
   904     08B6                     STR_4:
   905     08B6  3444               	retlw	68	;'D'
   906     08B7  3461               	retlw	97	;'a'
   907     08B8  3474               	retlw	116	;'t'
   908     08B9  346F               	retlw	111	;'o'
   909     08BA  3473               	retlw	115	;'s'
   910     08BB  3420               	retlw	32	;' '
   911     08BC  3447               	retlw	71	;'G'
   912     08BD  3475               	retlw	117	;'u'
   913     08BE  3461               	retlw	97	;'a'
   914     08BF  3472               	retlw	114	;'r'
   915     08C0  3464               	retlw	100	;'d'
   916     08C1  3461               	retlw	97	;'a'
   917     08C2  3464               	retlw	100	;'d'
   918     08C3  346F               	retlw	111	;'o'
   919     08C4  3473               	retlw	115	;'s'
   920     08C5  3420               	retlw	32	;' '
   921     08C6  340A               	retlw	10
   922     08C7  3400               	retlw	0
   923     08C8                     STR_5:
   924     08C8  346C               	retlw	108	;'l'
   925     08C9  3465               	retlw	101	;'e'
   926     08CA  3479               	retlw	121	;'y'
   927     08CB  3465               	retlw	101	;'e'
   928     08CC  346E               	retlw	110	;'n'
   929     08CD  3464               	retlw	100	;'d'
   930     08CE  346F               	retlw	111	;'o'
   931     08CF  3420               	retlw	32	;' '
   932     08D0  3445               	retlw	69	;'E'
   933     08D1  3445               	retlw	69	;'E'
   934     08D2  3450               	retlw	80	;'P'
   935     08D3  3452               	retlw	82	;'R'
   936     08D4  344F               	retlw	79	;'O'
   937     08D5  344D               	retlw	77	;'M'
   938     08D6  3420               	retlw	32	;' '
   939     08D7  340A               	retlw	10
   940     08D8  3400               	retlw	0
   941     08D9                     STR_1:
   942     08D9  3420               	retlw	32	;' '
   943     08DA  344D               	retlw	77	;'M'
   944     08DB  3465               	retlw	101	;'e'
   945     08DC  346E               	retlw	110	;'n'
   946     08DD  3475               	retlw	117	;'u'
   947     08DE  3420               	retlw	32	;' '
   948     08DF  3445               	retlw	69	;'E'
   949     08E0  3445               	retlw	69	;'E'
   950     08E1  3450               	retlw	80	;'P'
   951     08E2  3452               	retlw	82	;'R'
   952     08E3  344F               	retlw	79	;'O'
   953     08E4  344D               	retlw	77	;'M'
   954     08E5  3420               	retlw	32	;' '
   955     08E6  340A               	retlw	10
   956     08E7  3400               	retlw	0
   957     08E8                     STR_9:
   958     08E8  344C               	retlw	76	;'L'
   959     08E9  3469               	retlw	105	;'i'
   960     08EA  3473               	retlw	115	;'s'
   961     08EB  3474               	retlw	116	;'t'
   962     08EC  346F               	retlw	111	;'o'
   963     08ED  340A               	retlw	10
   964     08EE  3400               	retlw	0
   965     08B4                     
   966                           	psect	cinit
   967     0015                     start_initialization:	
   968                           ; #config settings
   969                           
   970     0015                     __initialization:
   971                           
   972                           ; Initialize objects allocated to BANK3
   973     0015  1683               	bsf	3,5	;RP0=1, select bank3
   974     0016  1703               	bsf	3,6	;RP1=1, select bank3
   975     0017  160A  118A  23A0  120A  118A  	fcall	__pidataBANK3	;fetch initializer
   976     001C  00E7               	movwf	__pdataBANK3& (0+127)
   977     001D  160A  118A  23A1  120A  118A  	fcall	__pidataBANK3+1	;fetch initializer
   978     0022  00E8               	movwf	(__pdataBANK3+1)& (0+127)
   979                           
   980                           ; Initialize objects allocated to BANK1
   981     0023  1683               	bsf	3,5	;RP0=1, select bank1
   982     0024  1303               	bcf	3,6	;RP1=0, select bank1
   983     0025  120A  118A  2003  120A  118A  	fcall	__pidataBANK1	;fetch initializer
   984     002A  00B8               	movwf	__pdataBANK1& (0+127)
   985                           
   986                           ; Clear objects allocated to BANK3
   987     002B  1683               	bsf	3,5	;RP0=1, select bank3
   988     002C  1703               	bsf	3,6	;RP1=1, select bank3
   989     002D  01D8               	clrf	__pbssBANK3& (0+127)
   990     002E  01D9               	clrf	(__pbssBANK3+1)& (0+127)
   991     002F  01DA               	clrf	(__pbssBANK3+2)& (0+127)
   992     0030  01DB               	clrf	(__pbssBANK3+3)& (0+127)
   993     0031  01DC               	clrf	(__pbssBANK3+4)& (0+127)
   994     0032  01DD               	clrf	(__pbssBANK3+5)& (0+127)
   995     0033  01DE               	clrf	(__pbssBANK3+6)& (0+127)
   996     0034  01DF               	clrf	(__pbssBANK3+7)& (0+127)
   997     0035  01E0               	clrf	(__pbssBANK3+8)& (0+127)
   998     0036  01E1               	clrf	(__pbssBANK3+9)& (0+127)
   999     0037  01E2               	clrf	(__pbssBANK3+10)& (0+127)
  1000     0038  01E3               	clrf	(__pbssBANK3+11)& (0+127)
  1001     0039  01E4               	clrf	(__pbssBANK3+12)& (0+127)
  1002     003A  01E5               	clrf	(__pbssBANK3+13)& (0+127)
  1003     003B  01E6               	clrf	(__pbssBANK3+14)& (0+127)
  1004     003C                     end_of_initialization:	
  1005                           ;End of C runtime variable initialization code
  1006                           
  1007     003C                     __end_of__initialization:
  1008     003C  0183               	clrf	3
  1009     003D  160A  118A  2D78   	ljmp	_main	;jump to C main() function
  1010                           
  1011                           	psect	dataBANK1
  1012     00B8                     __pdataBANK1:
  1013     00B8                     _TMR0_Pre:
  1014     00B8                     	ds	1
  1015                           
  1016                           	psect	bssBANK3
  1017     01D8                     __pbssBANK3:
  1018     01D8                     _Servo_Pos:
  1019     01D8                     	ds	4
  1020     01DC                     _Servo4_Val:
  1021     01DC                     	ds	2
  1022     01DE                     _Servo3_Val:
  1023     01DE                     	ds	2
  1024     01E0                     _Servo2_Val:
  1025     01E0                     	ds	2
  1026     01E2                     _Servo1_Val:
  1027     01E2                     	ds	2
  1028     01E4                     _Flag_1:
  1029     01E4                     	ds	1
  1030     01E5                     _Bandera_ADC:
  1031     01E5                     	ds	1
  1032     01E6                     _Selector:
  1033     01E6                     	ds	1
  1034                           
  1035                           	psect	dataBANK3
  1036     01E7                     __pdataBANK3:
  1037     01E7                     _Flag_3:
  1038     01E7                     	ds	1
  1039     01E8                     _Flag_2:
  1040     01E8                     	ds	1
  1041                           
  1042                           	psect	cstackBANK3
  1043     0190                     __pcstackBANK3:
  1044     0190                     isr@buffer:
  1045                           
  1046                           ; 50 bytes @ 0x0
  1047     0190                     	ds	50
  1048     01C2                     isr@numStr:
  1049                           
  1050                           ; 12 bytes @ 0x32
  1051     01C2                     	ds	12
  1052     01CE                     isr@numbers:
  1053                           
  1054                           ; 8 bytes @ 0x3E
  1055     01CE                     	ds	8
  1056     01D6                     isr@i:
  1057                           
  1058                           ; 2 bytes @ 0x46
  1059     01D6                     	ds	2
  1060                           
  1061                           	psect	cstackBANK2
  1062     0110                     __pcstackBANK2:
  1063     0110                     ?_ADC_Select:
  1064     0110                     ?_PWM_config:	
  1065                           ; 1 bytes @ 0x0
  1066                           
  1067     0110                     ADC_Select@channel:	
  1068                           ; 1 bytes @ 0x0
  1069                           
  1070     0110                     PWM_config@periodo:	
  1071                           ; 2 bytes @ 0x0
  1072                           
  1073                           
  1074                           ; 2 bytes @ 0x0
  1075     0110                     	ds	2
  1076                           
  1077                           	psect	cstackBANK1
  1078     00A0                     __pcstackBANK1:
  1079     00A0                     ___fltol@sign1:
  1080                           
  1081                           ; 1 bytes @ 0x0
  1082     00A0                     	ds	1
  1083     00A1                     ___fltol@exp1:
  1084                           
  1085                           ; 1 bytes @ 0x1
  1086     00A1                     	ds	1
  1087     00A2                     ?_map:
  1088     00A2                     map@x0:	
  1089                           ; 2 bytes @ 0x2
  1090                           
  1091                           
  1092                           ; 1 bytes @ 0x2
  1093     00A2                     	ds	1
  1094     00A3                     map@x1:
  1095                           
  1096                           ; 1 bytes @ 0x3
  1097     00A3                     	ds	1
  1098     00A4                     map@y0:
  1099                           
  1100                           ; 2 bytes @ 0x4
  1101     00A4                     	ds	2
  1102     00A6                     map@y1:
  1103                           
  1104                           ; 2 bytes @ 0x6
  1105     00A6                     	ds	2
  1106     00A8                     map@x:
  1107                           
  1108                           ; 1 bytes @ 0x8
  1109     00A8                     	ds	1
  1110     00A9                     ?_PWM_duty:
  1111     00A9                     PWM_duty@duty:	
  1112                           ; 1 bytes @ 0x9
  1113                           
  1114                           
  1115                           ; 2 bytes @ 0x9
  1116     00A9                     	ds	2
  1117     00AB                     ??_PWM_duty:
  1118                           
  1119                           ; 1 bytes @ 0xB
  1120     00AB                     	ds	2
  1121     00AD                     PWM_duty@canal:
  1122                           
  1123                           ; 1 bytes @ 0xD
  1124     00AD                     	ds	1
  1125     00AE                     ??_isr:
  1126                           
  1127                           ; 1 bytes @ 0xE
  1128     00AE                     	ds	7
  1129     00B5                     ??_ADC_Select:
  1130     00B5                     ??_PWM_config:	
  1131                           ; 1 bytes @ 0x15
  1132                           
  1133     00B5                     ??_PWM_Enable_Mux:	
  1134                           ; 1 bytes @ 0x15
  1135                           
  1136     00B5                     ??_ADC_Int:	
  1137                           ; 1 bytes @ 0x15
  1138                           
  1139     00B5                     ??_ADC_Isr_Enable:	
  1140                           ; 1 bytes @ 0x15
  1141                           
  1142     00B5                     ??_EUSART_Init:	
  1143                           ; 1 bytes @ 0x15
  1144                           
  1145     00B5                     ??_EUSART_Disable_TX_Isr:	
  1146                           ; 1 bytes @ 0x15
  1147                           
  1148     00B5                     ??_EUSART_Disable_RX_Isr:	
  1149                           ; 1 bytes @ 0x15
  1150                           
  1151     00B5                     ??_Setup:	
  1152                           ; 1 bytes @ 0x15
  1153                           
  1154     00B5                     ??_Int_Enable:	
  1155                           ; 1 bytes @ 0x15
  1156                           
  1157     00B5                     ADC_Int@ADFM_Select:	
  1158                           ; 1 bytes @ 0x15
  1159                           
  1160     00B5                     PWM_config@canal:	
  1161                           ; 1 bytes @ 0x15
  1162                           
  1163                           
  1164                           ; 1 bytes @ 0x15
  1165     00B5                     	ds	3
  1166     00B8                     ??_ADC_Change:
  1167     00B8                     ??_main:	
  1168                           ; 1 bytes @ 0x18
  1169                           
  1170                           
  1171                           	psect	cstackCOMMON
  1172     0070                     __pcstackCOMMON:	
  1173                           ; 1 bytes @ 0x18
  1174                           
  1175     0070                     ?_isdigit:
  1176     0070                     ?_PWM_Mux_Channel_Select:	
  1177                           ; 1 bit 
  1178                           
  1179     0070                     ?_Enviar_Texto:	
  1180                           ; 1 bytes @ 0x0
  1181                           
  1182     0070                     ?_EEPROM_Write:	
  1183                           ; 1 bytes @ 0x0
  1184                           
  1185     0070                     ?_EEPROM_Read:	
  1186                           ; 1 bytes @ 0x0
  1187                           
  1188     0070                     ??_EEPROM_Read:	
  1189                           ; 1 bytes @ 0x0
  1190                           
  1191     0070                     ?_Recibir_Texto:	
  1192                           ; 1 bytes @ 0x0
  1193                           
  1194     0070                     ?_PWM_Enable_Mux:	
  1195                           ; 1 bytes @ 0x0
  1196                           
  1197     0070                     ?_ADC_Int:	
  1198                           ; 1 bytes @ 0x0
  1199                           
  1200     0070                     ?_ADC_Isr_Enable:	
  1201                           ; 1 bytes @ 0x0
  1202                           
  1203     0070                     ?_EUSART_Init:	
  1204                           ; 1 bytes @ 0x0
  1205                           
  1206     0070                     ?_EUSART_Disable_TX_Isr:	
  1207                           ; 1 bytes @ 0x0
  1208                           
  1209     0070                     ?_EUSART_Disable_RX_Isr:	
  1210                           ; 1 bytes @ 0x0
  1211                           
  1212     0070                     ??_isdigit:	
  1213                           ; 1 bytes @ 0x0
  1214                           
  1215     0070                     ?_isr:	
  1216                           ; 1 bytes @ 0x0
  1217                           
  1218     0070                     ?_Setup:	
  1219                           ; 1 bytes @ 0x0
  1220                           
  1221     0070                     ?_Int_Enable:	
  1222                           ; 1 bytes @ 0x0
  1223                           
  1224     0070                     ?_ADC_Change:	
  1225                           ; 1 bytes @ 0x0
  1226                           
  1227     0070                     ?_main:	
  1228                           ; 1 bytes @ 0x0
  1229                           
  1230     0070                     ?__Umul8_16:	
  1231                           ; 1 bytes @ 0x0
  1232                           
  1233     0070                     ?___wmul:	
  1234                           ; 2 bytes @ 0x0
  1235                           
  1236     0070                     ?___lwdiv:	
  1237                           ; 2 bytes @ 0x0
  1238                           
  1239     0070                     ?___lwmod:	
  1240                           ; 2 bytes @ 0x0
  1241                           
  1242     0070                     ?___xxtofl:	
  1243                           ; 2 bytes @ 0x0
  1244                           
  1245     0070                     EEPROM_Read@adress:	
  1246                           ; 4 bytes @ 0x0
  1247                           
  1248     0070                     EEPROM_Write@data:	
  1249                           ; 1 bytes @ 0x0
  1250                           
  1251     0070                     __Umul8_16@multiplicand:	
  1252                           ; 1 bytes @ 0x0
  1253                           
  1254     0070                     _isdigit$1220:	
  1255                           ; 1 bytes @ 0x0
  1256                           
  1257     0070                     Enviar_Texto@text:	
  1258                           ; 1 bytes @ 0x0
  1259                           
  1260     0070                     Recibir_Texto@maxLength:	
  1261                           ; 2 bytes @ 0x0
  1262                           
  1263     0070                     PWM_Mux_Channel_Select@channel:	
  1264                           ; 2 bytes @ 0x0
  1265                           
  1266     0070                     ___wmul@multiplier:	
  1267                           ; 2 bytes @ 0x0
  1268                           
  1269     0070                     ___lwdiv@divisor:	
  1270                           ; 2 bytes @ 0x0
  1271                           
  1272     0070                     ___lwmod@divisor:	
  1273                           ; 2 bytes @ 0x0
  1274                           
  1275     0070                     ___xxtofl@val:	
  1276                           ; 2 bytes @ 0x0
  1277                           
  1278                           
  1279                           ; 4 bytes @ 0x0
  1280     0070                     	ds	1
  1281     0071                     ??_EEPROM_Write:
  1282     0071                     EEPROM_Write@adress:	
  1283                           ; 1 bytes @ 0x1
  1284                           
  1285     0071                     isdigit@c:	
  1286                           ; 1 bytes @ 0x1
  1287                           
  1288                           
  1289                           ; 1 bytes @ 0x1
  1290     0071                     	ds	1
  1291     0072                     ??_PWM_Mux_Channel_Select:
  1292     0072                     ??_Enviar_Texto:	
  1293                           ; 1 bytes @ 0x2
  1294                           
  1295     0072                     ??_Recibir_Texto:	
  1296                           ; 1 bytes @ 0x2
  1297                           
  1298     0072                     ??__Umul8_16:	
  1299                           ; 1 bytes @ 0x2
  1300                           
  1301     0072                     ___wmul@multiplicand:	
  1302                           ; 1 bytes @ 0x2
  1303                           
  1304     0072                     ___lwdiv@dividend:	
  1305                           ; 2 bytes @ 0x2
  1306                           
  1307     0072                     ___lwmod@dividend:	
  1308                           ; 2 bytes @ 0x2
  1309                           
  1310                           
  1311                           ; 2 bytes @ 0x2
  1312     0072                     	ds	1
  1313     0073                     Recibir_Texto@Output:
  1314                           
  1315                           ; 1 bytes @ 0x3
  1316     0073                     	ds	1
  1317     0074                     ??___wmul:
  1318     0074                     ??___lwdiv:	
  1319                           ; 1 bytes @ 0x4
  1320                           
  1321     0074                     ??___lwmod:	
  1322                           ; 1 bytes @ 0x4
  1323                           
  1324     0074                     ??___xxtofl:	
  1325                           ; 1 bytes @ 0x4
  1326                           
  1327     0074                     Recibir_Texto@i:	
  1328                           ; 1 bytes @ 0x4
  1329                           
  1330     0074                     ___wmul@product:	
  1331                           ; 2 bytes @ 0x4
  1332                           
  1333     0074                     __Umul8_16@product:	
  1334                           ; 2 bytes @ 0x4
  1335                           
  1336                           
  1337                           ; 2 bytes @ 0x4
  1338     0074                     	ds	1
  1339     0075                     ___lwmod@counter:
  1340     0075                     ___lwdiv@quotient:	
  1341                           ; 1 bytes @ 0x5
  1342                           
  1343                           
  1344                           ; 2 bytes @ 0x5
  1345     0075                     	ds	1
  1346     0076                     ?_atoi:
  1347     0076                     __Umul8_16@word_mpld:	
  1348                           ; 2 bytes @ 0x6
  1349                           
  1350                           
  1351                           ; 2 bytes @ 0x6
  1352     0076                     	ds	1
  1353     0077                     ___lwdiv@counter:
  1354                           
  1355                           ; 1 bytes @ 0x7
  1356     0077                     	ds	1
  1357     0078                     ??_atoi:
  1358     0078                     ?_utoa:	
  1359                           ; 1 bytes @ 0x8
  1360                           
  1361     0078                     __Umul8_16@multiplier:	
  1362                           ; 1 bytes @ 0x8
  1363                           
  1364     0078                     ___xxtofl@sign:	
  1365                           ; 1 bytes @ 0x8
  1366                           
  1367     0078                     utoa@val:	
  1368                           ; 1 bytes @ 0x8
  1369                           
  1370                           
  1371                           ; 2 bytes @ 0x8
  1372     0078                     	ds	1
  1373     0079                     ___xxtofl@exp:
  1374                           
  1375                           ; 1 bytes @ 0x9
  1376     0079                     	ds	1
  1377     007A                     atoi@sign:
  1378     007A                     utoa@base:	
  1379                           ; 1 bytes @ 0xA
  1380                           
  1381     007A                     ___xxtofl@arg:	
  1382                           ; 2 bytes @ 0xA
  1383                           
  1384                           
  1385                           ; 4 bytes @ 0xA
  1386     007A                     	ds	1
  1387     007B                     atoi@a:
  1388                           
  1389                           ; 2 bytes @ 0xB
  1390     007B                     	ds	1
  1391     007C                     ??_utoa:
  1392                           
  1393                           ; 1 bytes @ 0xC
  1394     007C                     	ds	1
  1395     007D                     ??_itoa:
  1396     007D                     atoi@s:	
  1397                           ; 1 bytes @ 0xD
  1398                           
  1399                           
  1400                           ; 1 bytes @ 0xD
  1401     007D                     	ds	1
  1402     007E                     ??_map:
  1403     007E                     ??_string_to_int:	
  1404                           ; 1 bytes @ 0xE
  1405                           
  1406                           
  1407                           	psect	cstackBANK0
  1408     0020                     __pcstackBANK0:	
  1409                           ; 1 bytes @ 0xE
  1410                           
  1411     0020                     ?_string_to_int:
  1412     0020                     ?___fldiv:	
  1413                           ; 2 bytes @ 0x0
  1414                           
  1415     0020                     utoa@v:	
  1416                           ; 4 bytes @ 0x0
  1417                           
  1418     0020                     ___fldiv@a:	
  1419                           ; 2 bytes @ 0x0
  1420                           
  1421                           
  1422                           ; 4 bytes @ 0x0
  1423     0020                     	ds	2
  1424     0022                     string_to_int@str:
  1425     0022                     utoa@c:	
  1426                           ; 1 bytes @ 0x2
  1427                           
  1428                           
  1429                           ; 1 bytes @ 0x2
  1430     0022                     	ds	1
  1431     0023                     utoa@buf:
  1432                           
  1433                           ; 1 bytes @ 0x3
  1434     0023                     	ds	1
  1435     0024                     ?_itoa:
  1436     0024                     itoa@val:	
  1437                           ; 1 bytes @ 0x4
  1438                           
  1439     0024                     ___fldiv@b:	
  1440                           ; 2 bytes @ 0x4
  1441                           
  1442                           
  1443                           ; 4 bytes @ 0x4
  1444     0024                     	ds	2
  1445     0026                     itoa@base:
  1446                           
  1447                           ; 2 bytes @ 0x6
  1448     0026                     	ds	2
  1449     0028                     ??___fldiv:
  1450     0028                     itoa@buf:	
  1451                           ; 1 bytes @ 0x8
  1452                           
  1453                           
  1454                           ; 1 bytes @ 0x8
  1455     0028                     	ds	5
  1456     002D                     ___fldiv@rem:
  1457                           
  1458                           ; 4 bytes @ 0xD
  1459     002D                     	ds	4
  1460     0031                     ___fldiv@sign:
  1461                           
  1462                           ; 1 bytes @ 0x11
  1463     0031                     	ds	1
  1464     0032                     ___fldiv@new_exp:
  1465                           
  1466                           ; 2 bytes @ 0x12
  1467     0032                     	ds	2
  1468     0034                     ___fldiv@grs:
  1469                           
  1470                           ; 4 bytes @ 0x14
  1471     0034                     	ds	4
  1472     0038                     ___fldiv@bexp:
  1473                           
  1474                           ; 1 bytes @ 0x18
  1475     0038                     	ds	1
  1476     0039                     ___fldiv@aexp:
  1477                           
  1478                           ; 1 bytes @ 0x19
  1479     0039                     	ds	1
  1480     003A                     ?___flmul:
  1481     003A                     ___flmul@b:	
  1482                           ; 4 bytes @ 0x1A
  1483                           
  1484                           
  1485                           ; 4 bytes @ 0x1A
  1486     003A                     	ds	4
  1487     003E                     ___flmul@a:
  1488                           
  1489                           ; 4 bytes @ 0x1E
  1490     003E                     	ds	4
  1491     0042                     ??___flmul:
  1492                           
  1493                           ; 1 bytes @ 0x22
  1494     0042                     	ds	5
  1495     0047                     ___flmul@sign:
  1496                           
  1497                           ; 1 bytes @ 0x27
  1498     0047                     	ds	1
  1499     0048                     ___flmul@grs:
  1500                           
  1501                           ; 4 bytes @ 0x28
  1502     0048                     	ds	4
  1503     004C                     ___flmul@aexp:
  1504                           
  1505                           ; 1 bytes @ 0x2C
  1506     004C                     	ds	1
  1507     004D                     ___flmul@bexp:
  1508                           
  1509                           ; 1 bytes @ 0x2D
  1510     004D                     	ds	1
  1511     004E                     ___flmul@prod:
  1512                           
  1513                           ; 4 bytes @ 0x2E
  1514     004E                     	ds	4
  1515     0052                     ___flmul@temp:
  1516                           
  1517                           ; 2 bytes @ 0x32
  1518     0052                     	ds	2
  1519     0054                     ?___fladd:
  1520     0054                     ___fladd@b:	
  1521                           ; 4 bytes @ 0x34
  1522                           
  1523                           
  1524                           ; 4 bytes @ 0x34
  1525     0054                     	ds	4
  1526     0058                     ___fladd@a:
  1527                           
  1528                           ; 4 bytes @ 0x38
  1529     0058                     	ds	4
  1530     005C                     ??___fladd:
  1531                           
  1532                           ; 1 bytes @ 0x3C
  1533     005C                     	ds	8
  1534     0064                     ___fladd@signs:
  1535                           
  1536                           ; 1 bytes @ 0x44
  1537     0064                     	ds	1
  1538     0065                     ___fladd@aexp:
  1539                           
  1540                           ; 1 bytes @ 0x45
  1541     0065                     	ds	1
  1542     0066                     ___fladd@bexp:
  1543                           
  1544                           ; 1 bytes @ 0x46
  1545     0066                     	ds	1
  1546     0067                     ___fladd@grs:
  1547                           
  1548                           ; 1 bytes @ 0x47
  1549     0067                     	ds	1
  1550     0068                     ?___fltol:
  1551     0068                     ___fltol@f1:	
  1552                           ; 4 bytes @ 0x48
  1553                           
  1554                           
  1555                           ; 4 bytes @ 0x48
  1556     0068                     	ds	4
  1557     006C                     ??___fltol:
  1558                           
  1559                           ; 1 bytes @ 0x4C
  1560     006C                     	ds	4
  1561                           
  1562                           	psect	maintext
  1563     1578                     __pmaintext:	
  1564 ;;
  1565 ;;Main: autosize = 0, tempsize = 0, incstack = 0, save=0
  1566 ;;
  1567 ;; *************** function _main *****************
  1568 ;; Defined at:
  1569 ;;		line 326 in file "Proyecto_2.c"
  1570 ;; Parameters:    Size  Location     Type
  1571 ;;		None
  1572 ;; Auto vars:     Size  Location     Type
  1573 ;;		None
  1574 ;; Return value:  Size  Location     Type
  1575 ;;                  1    wreg      void 
  1576 ;; Registers used:
  1577 ;;		wreg, fsr0l, fsr0h, status,2, status,0, pclath, cstack
  1578 ;; Tracked objects:
  1579 ;;		On entry : B00/0
  1580 ;;		On exit  : 0/0
  1581 ;;		Unchanged: 0/0
  1582 ;; Data sizes:     COMMON   BANK0   BANK1   BANK3   BANK2
  1583 ;;      Params:         0       0       0       0       0
  1584 ;;      Locals:         0       0       0       0       0
  1585 ;;      Temps:          0       0       0       0       0
  1586 ;;      Totals:         0       0       0       0       0
  1587 ;;Total ram usage:        0 bytes
  1588 ;; Hardware stack levels required when called: 6
  1589 ;; This function calls:
  1590 ;;		_ADC_Change
  1591 ;;		_ADC_Int
  1592 ;;		_ADC_Isr_Enable
  1593 ;;		_EUSART_Disable_RX_Isr
  1594 ;;		_EUSART_Disable_TX_Isr
  1595 ;;		_EUSART_Init
  1596 ;;		_Int_Enable
  1597 ;;		_PWM_Enable_Mux
  1598 ;;		_PWM_config
  1599 ;;		_Setup
  1600 ;; This function is called by:
  1601 ;;		Startup code after reset
  1602 ;; This function uses a non-reentrant model
  1603 ;;
  1604                           
  1605     1578                     _main:	
  1606                           ;psect for function _main
  1607                           
  1608     1578                     l3249:	
  1609                           ;incstack = 0
  1610                           ; Regs used in _main: [wreg-fsr0h+status,2+status,0+pclath+cstack]
  1611                           
  1612                           
  1613                           ;Proyecto_2.c: 328:     Setup();
  1614     1578  160A  118A  24A0  160A  118A  	fcall	_Setup
  1615     157D                     l3251:
  1616                           
  1617                           ;Proyecto_2.c: 329:     Int_Enable();
  1618     157D  160A  118A  23B5  160A  118A  	fcall	_Int_Enable
  1619     1582                     l3253:
  1620                           
  1621                           ;Proyecto_2.c: 331:     PWM_config(1,4);
  1622     1582  3004               	movlw	4
  1623     1583  1283               	bcf	3,5	;RP0=0, select bank2
  1624     1584  1703               	bsf	3,6	;RP1=1, select bank2
  1625     1585  0090               	movwf	PWM_config@periodo^(0+256)
  1626     1586  3000               	movlw	0
  1627     1587  0091               	movwf	(PWM_config@periodo^(0+256)+1)
  1628     1588  3001               	movlw	1
  1629     1589  160A  118A  26B1  160A  118A  	fcall	_PWM_config
  1630     158E                     l3255:
  1631                           
  1632                           ;Proyecto_2.c: 332:     PWM_Enable_Mux();
  1633     158E  160A  118A  23AA  160A  118A  	fcall	_PWM_Enable_Mux
  1634     1593                     l3257:
  1635                           
  1636                           ;Proyecto_2.c: 334:     ADC_Int(0);
  1637     1593  3000               	movlw	0
  1638     1594  160A  118A  23CC  160A  118A  	fcall	_ADC_Int
  1639     1599                     l3259:
  1640                           
  1641                           ;Proyecto_2.c: 335:     ADC_Isr_Enable();
  1642     1599  160A  118A  23AE  160A  118A  	fcall	_ADC_Isr_Enable
  1643     159E                     l3261:
  1644                           
  1645                           ;Proyecto_2.c: 337:     EUSART_Init();
  1646     159E  120A  118A  27E8  160A  118A  	fcall	_EUSART_Init
  1647     15A3                     l3263:
  1648                           
  1649                           ;Proyecto_2.c: 338:     EUSART_Disable_TX_Isr();
  1650     15A3  160A  118A  23A6  160A  118A  	fcall	_EUSART_Disable_TX_Isr
  1651     15A8                     l3265:
  1652                           
  1653                           ;Proyecto_2.c: 339:     EUSART_Disable_RX_Isr();
  1654     15A8  160A  118A  23A2  160A  118A  	fcall	_EUSART_Disable_RX_Isr
  1655     15AD                     l3267:
  1656                           
  1657                           ;Proyecto_2.c: 343:     {;Proyecto_2.c: 344:         ADC_Change();
  1658     15AD  160A  118A  25FA  160A  118A  	fcall	_ADC_Change
  1659     15B2  2DAD               	goto	l3267
  1660     15B3  120A  118A  2812   	ljmp	start
  1661     15B6                     __end_of_main:
  1662                           
  1663                           	psect	text1
  1664     14A0                     __ptext1:	
  1665 ;; *************** function _Setup *****************
  1666 ;; Defined at:
  1667 ;;		line 253 in file "Proyecto_2.c"
  1668 ;; Parameters:    Size  Location     Type
  1669 ;;		None
  1670 ;; Auto vars:     Size  Location     Type
  1671 ;;		None
  1672 ;; Return value:  Size  Location     Type
  1673 ;;                  1    wreg      void 
  1674 ;; Registers used:
  1675 ;;		wreg, status,2
  1676 ;; Tracked objects:
  1677 ;;		On entry : 0/0
  1678 ;;		On exit  : 0/0
  1679 ;;		Unchanged: 0/0
  1680 ;; Data sizes:     COMMON   BANK0   BANK1   BANK3   BANK2
  1681 ;;      Params:         0       0       0       0       0
  1682 ;;      Locals:         0       0       0       0       0
  1683 ;;      Temps:          0       0       0       0       0
  1684 ;;      Totals:         0       0       0       0       0
  1685 ;;Total ram usage:        0 bytes
  1686 ;; Hardware stack levels used: 1
  1687 ;; Hardware stack levels required when called: 4
  1688 ;; This function calls:
  1689 ;;		Nothing
  1690 ;; This function is called by:
  1691 ;;		_main
  1692 ;; This function uses a non-reentrant model
  1693 ;;
  1694                           
  1695     14A0                     _Setup:	
  1696                           ;psect for function _Setup
  1697                           
  1698     14A0                     l2929:	
  1699                           ;incstack = 0
  1700                           ; Regs used in _Setup: [wreg+status,2]
  1701                           
  1702                           
  1703                           ;Proyecto_2.c: 255:     ANSEL = 0x0F;
  1704     14A0  300F               	movlw	15
  1705     14A1  1683               	bsf	3,5	;RP0=1, select bank3
  1706     14A2  1703               	bsf	3,6	;RP1=1, select bank3
  1707     14A3  0088               	movwf	8	;volatile
  1708     14A4                     l2931:
  1709                           
  1710                           ;Proyecto_2.c: 256:     ANSELH = 0x00;
  1711     14A4  0189               	clrf	9	;volatile
  1712     14A5                     l2933:
  1713                           
  1714                           ;Proyecto_2.c: 257:     TRISA = 0x0F;
  1715     14A5  300F               	movlw	15
  1716     14A6  1683               	bsf	3,5	;RP0=1, select bank1
  1717     14A7  1303               	bcf	3,6	;RP1=0, select bank1
  1718     14A8  0085               	movwf	5	;volatile
  1719                           
  1720                           ;Proyecto_2.c: 258:     PORTA = 0;
  1721     14A9  1283               	bcf	3,5	;RP0=0, select bank0
  1722     14AA  1303               	bcf	3,6	;RP1=0, select bank0
  1723     14AB  0185               	clrf	5	;volatile
  1724     14AC                     l2935:
  1725                           
  1726                           ;Proyecto_2.c: 259:     TRISB = 0X07;
  1727     14AC  3007               	movlw	7
  1728     14AD  1683               	bsf	3,5	;RP0=1, select bank1
  1729     14AE  1303               	bcf	3,6	;RP1=0, select bank1
  1730     14AF  0086               	movwf	6	;volatile
  1731     14B0                     l2937:
  1732                           
  1733                           ;Proyecto_2.c: 260:     PORTB = 0X10;
  1734     14B0  3010               	movlw	16
  1735     14B1  1283               	bcf	3,5	;RP0=0, select bank0
  1736     14B2  1303               	bcf	3,6	;RP1=0, select bank0
  1737     14B3  0086               	movwf	6	;volatile
  1738     14B4                     l2939:
  1739                           
  1740                           ;Proyecto_2.c: 261:     IOCB = 0X07;
  1741     14B4  3007               	movlw	7
  1742     14B5  1683               	bsf	3,5	;RP0=1, select bank1
  1743     14B6  1303               	bcf	3,6	;RP1=0, select bank1
  1744     14B7  0096               	movwf	22	;volatile
  1745     14B8                     l2941:
  1746                           
  1747                           ;Proyecto_2.c: 262:     TRISC = 0;
  1748     14B8  0187               	clrf	7	;volatile
  1749     14B9                     l2943:
  1750                           
  1751                           ;Proyecto_2.c: 263:     PORTC = 0;
  1752     14B9  1283               	bcf	3,5	;RP0=0, select bank0
  1753     14BA  1303               	bcf	3,6	;RP1=0, select bank0
  1754     14BB  0187               	clrf	7	;volatile
  1755     14BC                     l2945:
  1756                           
  1757                           ;Proyecto_2.c: 264:     TRISD = 0;
  1758     14BC  1683               	bsf	3,5	;RP0=1, select bank1
  1759     14BD  1303               	bcf	3,6	;RP1=0, select bank1
  1760     14BE  0188               	clrf	8	;volatile
  1761                           
  1762                           ;Proyecto_2.c: 265:     PORTD = 0x08;
  1763     14BF  3008               	movlw	8
  1764     14C0  1283               	bcf	3,5	;RP0=0, select bank0
  1765     14C1  1303               	bcf	3,6	;RP1=0, select bank0
  1766     14C2  0088               	movwf	8	;volatile
  1767     14C3                     l2947:
  1768                           
  1769                           ;Proyecto_2.c: 266:     TRISE = 0;
  1770     14C3  1683               	bsf	3,5	;RP0=1, select bank1
  1771     14C4  1303               	bcf	3,6	;RP1=0, select bank1
  1772     14C5  0189               	clrf	9	;volatile
  1773     14C6                     l2949:
  1774                           
  1775                           ;Proyecto_2.c: 267:     PORTE = 0;
  1776     14C6  1283               	bcf	3,5	;RP0=0, select bank0
  1777     14C7  1303               	bcf	3,6	;RP1=0, select bank0
  1778     14C8  0189               	clrf	9	;volatile
  1779     14C9                     l2951:
  1780                           
  1781                           ;Proyecto_2.c: 269:     OPTION_REGbits.nRBPU = 0;
  1782     14C9  1683               	bsf	3,5	;RP0=1, select bank1
  1783     14CA  1303               	bcf	3,6	;RP1=0, select bank1
  1784     14CB  1381               	bcf	1,7	;volatile
  1785     14CC                     l2953:
  1786                           
  1787                           ;Proyecto_2.c: 271:     OSCCONbits.SCS = 1;
  1788     14CC  140F               	bsf	15,0	;volatile
  1789     14CD                     l2955:
  1790                           
  1791                           ;Proyecto_2.c: 272:     OSCCONbits.IRCF0 = 0;
  1792     14CD  120F               	bcf	15,4	;volatile
  1793     14CE                     l2957:
  1794                           
  1795                           ;Proyecto_2.c: 273:     OSCCONbits.IRCF1 = 1;
  1796     14CE  168F               	bsf	15,5	;volatile
  1797     14CF                     l2959:
  1798                           
  1799                           ;Proyecto_2.c: 274:     OSCCONbits.IRCF2 = 1;
  1800     14CF  170F               	bsf	15,6	;volatile
  1801     14D0                     l151:
  1802     14D0  0008               	return
  1803     14D1                     __end_of_Setup:
  1804                           
  1805                           	psect	text2
  1806     16B1                     __ptext2:	
  1807 ;; *************** function _PWM_config *****************
  1808 ;; Defined at:
  1809 ;;		line 4 in file "PWM.c"
  1810 ;; Parameters:    Size  Location     Type
  1811 ;;  canal           1    wreg     unsigned char 
  1812 ;;  periodo         2    0[BANK2 ] int 
  1813 ;; Auto vars:     Size  Location     Type
  1814 ;;  canal           1   21[BANK1 ] unsigned char 
  1815 ;; Return value:  Size  Location     Type
  1816 ;;                  1    wreg      void 
  1817 ;; Registers used:
  1818 ;;		wreg, fsr0l, fsr0h, status,2, status,0
  1819 ;; Tracked objects:
  1820 ;;		On entry : 0/0
  1821 ;;		On exit  : 0/0
  1822 ;;		Unchanged: 0/0
  1823 ;; Data sizes:     COMMON   BANK0   BANK1   BANK3   BANK2
  1824 ;;      Params:         0       0       0       0       2
  1825 ;;      Locals:         0       0       1       0       0
  1826 ;;      Temps:          0       0       0       0       0
  1827 ;;      Totals:         0       0       1       0       2
  1828 ;;Total ram usage:        3 bytes
  1829 ;; Hardware stack levels used: 1
  1830 ;; Hardware stack levels required when called: 4
  1831 ;; This function calls:
  1832 ;;		Nothing
  1833 ;; This function is called by:
  1834 ;;		_main
  1835 ;; This function uses a non-reentrant model
  1836 ;;
  1837                           
  1838     16B1                     _PWM_config:	
  1839                           ;psect for function _PWM_config
  1840                           
  1841                           
  1842                           ;incstack = 0
  1843                           ; Regs used in _PWM_config: [wreg-fsr0h+status,2+status,0]
  1844                           ;PWM_config@canal stored from wreg
  1845     16B1  1683               	bsf	3,5	;RP0=1, select bank1
  1846     16B2  1303               	bcf	3,6	;RP1=0, select bank1
  1847     16B3  00B5               	movwf	PWM_config@canal^(0+128)
  1848     16B4                     l2985:
  1849                           
  1850                           ;PWM.c: 4: void PWM_config(char canal, int periodo);PWM.c: 5: {;PWM.c: 6:     CCP1CON = 
      +                          0;
  1851     16B4  1283               	bcf	3,5	;RP0=0, select bank0
  1852     16B5  1303               	bcf	3,6	;RP1=0, select bank0
  1853     16B6  0197               	clrf	23	;volatile
  1854                           
  1855                           ;PWM.c: 7:     CCP2CON = 0;
  1856     16B7  019D               	clrf	29	;volatile
  1857                           
  1858                           ;PWM.c: 9:     switch (periodo)
  1859     16B8  2ECD               	goto	l2995
  1860     16B9                     l2987:
  1861                           
  1862                           ;PWM.c: 12:             PR2 = 125;
  1863     16B9  307D               	movlw	125
  1864     16BA  1683               	bsf	3,5	;RP0=1, select bank1
  1865     16BB  1303               	bcf	3,6	;RP1=0, select bank1
  1866     16BC  0092               	movwf	18	;volatile
  1867                           
  1868                           ;PWM.c: 13:             break;
  1869     16BD  2EDF               	goto	l2997
  1870     16BE                     l2989:
  1871                           
  1872                           ;PWM.c: 15:             PR2 = 188;
  1873     16BE  30BC               	movlw	188
  1874     16BF  1683               	bsf	3,5	;RP0=1, select bank1
  1875     16C0  1303               	bcf	3,6	;RP1=0, select bank1
  1876     16C1  0092               	movwf	18	;volatile
  1877                           
  1878                           ;PWM.c: 16:             break;
  1879     16C2  2EDF               	goto	l2997
  1880     16C3                     l2991:
  1881                           
  1882                           ;PWM.c: 18:             PR2 = 250;
  1883     16C3  30FA               	movlw	250
  1884     16C4  1683               	bsf	3,5	;RP0=1, select bank1
  1885     16C5  1303               	bcf	3,6	;RP1=0, select bank1
  1886     16C6  0092               	movwf	18	;volatile
  1887                           
  1888                           ;PWM.c: 19:             break;
  1889     16C7  2EDF               	goto	l2997
  1890     16C8                     l2993:
  1891                           
  1892                           ;PWM.c: 21:             PR2 = 63;
  1893     16C8  303F               	movlw	63
  1894     16C9  1683               	bsf	3,5	;RP0=1, select bank1
  1895     16CA  1303               	bcf	3,6	;RP1=0, select bank1
  1896     16CB  0092               	movwf	18	;volatile
  1897                           
  1898                           ;PWM.c: 22:     }
  1899     16CC  2EDF               	goto	l2997
  1900     16CD                     l2995:
  1901                           
  1902                           ; Switch on 2 bytes has been partitioned into a top level switch of size 1, and 1 sub-sw
      +                          itches
  1903                           ; Switch size 1, requested type "simple"
  1904                           ; Number of cases is 1, Range of values is 0 to 0
  1905                           ; switch strategies available:
  1906                           ; Name         Instructions Cycles
  1907                           ; simple_byte            4     3 (average)
  1908                           ; direct_byte           11     8 (fixed)
  1909                           ; jumptable            260     6 (fixed)
  1910                           ;	Chosen strategy is simple_byte
  1911     16CD  1283               	bcf	3,5	;RP0=0, select bank2
  1912     16CE  1703               	bsf	3,6	;RP1=1, select bank2
  1913     16CF  0811               	movf	(PWM_config@periodo+1)^(0+256),w
  1914     16D0  3A00               	xorlw	0	; case 0
  1915     16D1  1903               	skipnz
  1916     16D2  2ED4               	goto	l3289
  1917     16D3  2EC8               	goto	l2993
  1918     16D4                     l3289:
  1919                           
  1920                           ; Switch size 1, requested type "simple"
  1921                           ; Number of cases is 3, Range of values is 2 to 4
  1922                           ; switch strategies available:
  1923                           ; Name         Instructions Cycles
  1924                           ; simple_byte           10     6 (average)
  1925                           ; direct_byte           20    11 (fixed)
  1926                           ; jumptable            263     9 (fixed)
  1927                           ;	Chosen strategy is simple_byte
  1928     16D4  0810               	movf	PWM_config@periodo^(0+256),w
  1929     16D5  3A02               	xorlw	2	; case 2
  1930     16D6  1903               	skipnz
  1931     16D7  2EB9               	goto	l2987
  1932     16D8  3A01               	xorlw	1	; case 3
  1933     16D9  1903               	skipnz
  1934     16DA  2EBE               	goto	l2989
  1935     16DB  3A07               	xorlw	7	; case 4
  1936     16DC  1903               	skipnz
  1937     16DD  2EC3               	goto	l2991
  1938     16DE  2EC8               	goto	l2993
  1939     16DF                     l2997:
  1940                           
  1941                           ;PWM.c: 24:     if (canal == 1)
  1942     16DF  0335               	decf	PWM_config@canal^(0+128),w
  1943     16E0  1D03               	btfss	3,2
  1944     16E1  2EE3               	goto	u4011
  1945     16E2  2EE4               	goto	u4010
  1946     16E3                     u4011:
  1947     16E3  2EED               	goto	l3001
  1948     16E4                     u4010:
  1949     16E4                     l2999:
  1950                           
  1951                           ;PWM.c: 25:     {;PWM.c: 26:         CCP1CONbits.P1M = 0;
  1952     16E4  303F               	movlw	-193
  1953     16E5  1283               	bcf	3,5	;RP0=0, select bank0
  1954     16E6  1303               	bcf	3,6	;RP1=0, select bank0
  1955     16E7  0597               	andwf	23,f	;volatile
  1956                           
  1957                           ;PWM.c: 27:         CCP1CONbits.CCP1M = 0b1100;
  1958     16E8  0817               	movf	23,w	;volatile
  1959     16E9  39F0               	andlw	-16
  1960     16EA  380C               	iorlw	12
  1961     16EB  0097               	movwf	23	;volatile
  1962                           
  1963                           ;PWM.c: 28:     }
  1964     16EC  2F0C               	goto	l3009
  1965     16ED                     l3001:
  1966     16ED  3002               	movlw	2
  1967     16EE  0635               	xorwf	PWM_config@canal^(0+128),w
  1968     16EF  1D03               	btfss	3,2
  1969     16F0  2EF2               	goto	u4021
  1970     16F1  2EF3               	goto	u4020
  1971     16F2                     u4021:
  1972     16F2  2EFA               	goto	l3005
  1973     16F3                     u4020:
  1974     16F3                     l3003:
  1975                           
  1976                           ;PWM.c: 30:     {;PWM.c: 31:         CCP2CONbits.CCP2M = 0b1100;
  1977     16F3  1283               	bcf	3,5	;RP0=0, select bank0
  1978     16F4  1303               	bcf	3,6	;RP1=0, select bank0
  1979     16F5  081D               	movf	29,w	;volatile
  1980     16F6  39F0               	andlw	-16
  1981     16F7  380C               	iorlw	12
  1982     16F8  009D               	movwf	29	;volatile
  1983                           
  1984                           ;PWM.c: 32:     }
  1985     16F9  2F0C               	goto	l3009
  1986     16FA                     l3005:
  1987     16FA  3003               	movlw	3
  1988     16FB  0635               	xorwf	PWM_config@canal^(0+128),w
  1989     16FC  1D03               	btfss	3,2
  1990     16FD  2EFF               	goto	u4031
  1991     16FE  2F00               	goto	u4030
  1992     16FF                     u4031:
  1993     16FF  2F0C               	goto	l3009
  1994     1700                     u4030:
  1995     1700                     l3007:
  1996                           
  1997                           ;PWM.c: 34:     {;PWM.c: 35:         CCP1CONbits.P1M = 0;
  1998     1700  303F               	movlw	-193
  1999     1701  1283               	bcf	3,5	;RP0=0, select bank0
  2000     1702  1303               	bcf	3,6	;RP1=0, select bank0
  2001     1703  0597               	andwf	23,f	;volatile
  2002                           
  2003                           ;PWM.c: 36:         CCP1CONbits.CCP1M = 0b1100;
  2004     1704  0817               	movf	23,w	;volatile
  2005     1705  39F0               	andlw	-16
  2006     1706  380C               	iorlw	12
  2007     1707  0097               	movwf	23	;volatile
  2008                           
  2009                           ;PWM.c: 37:         CCP2CONbits.CCP2M = 0b1100;
  2010     1708  081D               	movf	29,w	;volatile
  2011     1709  39F0               	andlw	-16
  2012     170A  380C               	iorlw	12
  2013     170B  009D               	movwf	29	;volatile
  2014     170C                     l3009:
  2015                           
  2016                           ;PWM.c: 39:         PIR1bits.TMR2IF = 0;
  2017     170C  1283               	bcf	3,5	;RP0=0, select bank0
  2018     170D  108C               	bcf	12,1	;volatile
  2019                           
  2020                           ;PWM.c: 40:         T2CONbits.T2CKPS = 0b11;
  2021     170E  3003               	movlw	3
  2022     170F  0492               	iorwf	18,f	;volatile
  2023     1710                     l3011:
  2024                           
  2025                           ;PWM.c: 41:         T2CONbits.TMR2ON = 1;
  2026     1710  1512               	bsf	18,2	;volatile
  2027     1711                     l293:	
  2028                           ;PWM.c: 42:         while (!PIR1bits.TMR2IF);
  2029                           
  2030     1711  1C8C               	btfss	12,1	;volatile
  2031     1712  2F14               	goto	u4041
  2032     1713  2F15               	goto	u4040
  2033     1714                     u4041:
  2034     1714  2F11               	goto	l293
  2035     1715                     u4040:
  2036     1715                     l295:
  2037                           
  2038                           ;PWM.c: 43:         PIR1bits.TMR2IF = 0;
  2039     1715  108C               	bcf	12,1	;volatile
  2040     1716                     l296:
  2041     1716  0008               	return
  2042     1717                     __end_of_PWM_config:
  2043                           
  2044                           	psect	text3
  2045     13AA                     __ptext3:	
  2046 ;; *************** function _PWM_Enable_Mux *****************
  2047 ;; Defined at:
  2048 ;;		line 63 in file "PWM.c"
  2049 ;; Parameters:    Size  Location     Type
  2050 ;;		None
  2051 ;; Auto vars:     Size  Location     Type
  2052 ;;		None
  2053 ;; Return value:  Size  Location     Type
  2054 ;;                  1    wreg      void 
  2055 ;; Registers used:
  2056 ;;		None
  2057 ;; Tracked objects:
  2058 ;;		On entry : 0/0
  2059 ;;		On exit  : 0/0
  2060 ;;		Unchanged: 0/0
  2061 ;; Data sizes:     COMMON   BANK0   BANK1   BANK3   BANK2
  2062 ;;      Params:         0       0       0       0       0
  2063 ;;      Locals:         0       0       0       0       0
  2064 ;;      Temps:          0       0       0       0       0
  2065 ;;      Totals:         0       0       0       0       0
  2066 ;;Total ram usage:        0 bytes
  2067 ;; Hardware stack levels used: 1
  2068 ;; Hardware stack levels required when called: 4
  2069 ;; This function calls:
  2070 ;;		Nothing
  2071 ;; This function is called by:
  2072 ;;		_main
  2073 ;; This function uses a non-reentrant model
  2074 ;;
  2075                           
  2076     13AA                     _PWM_Enable_Mux:	
  2077                           ;psect for function _PWM_Enable_Mux
  2078                           
  2079     13AA                     l3017:	
  2080                           ;incstack = 0
  2081                           ; Regs used in _PWM_Enable_Mux: []
  2082                           
  2083                           
  2084                           ;PWM.c: 65:     PSTRCONbits.STRSYNC = 1;
  2085     13AA  1683               	bsf	3,5	;RP0=1, select bank1
  2086     13AB  1303               	bcf	3,6	;RP1=0, select bank1
  2087     13AC  161D               	bsf	29,4	;volatile
  2088     13AD                     l304:
  2089     13AD  0008               	return
  2090     13AE                     __end_of_PWM_Enable_Mux:
  2091                           
  2092                           	psect	text4
  2093     13B5                     __ptext4:	
  2094 ;; *************** function _Int_Enable *****************
  2095 ;; Defined at:
  2096 ;;		line 280 in file "Proyecto_2.c"
  2097 ;; Parameters:    Size  Location     Type
  2098 ;;		None
  2099 ;; Auto vars:     Size  Location     Type
  2100 ;;		None
  2101 ;; Return value:  Size  Location     Type
  2102 ;;                  1    wreg      void 
  2103 ;; Registers used:
  2104 ;;		None
  2105 ;; Tracked objects:
  2106 ;;		On entry : 0/0
  2107 ;;		On exit  : 0/0
  2108 ;;		Unchanged: 0/0
  2109 ;; Data sizes:     COMMON   BANK0   BANK1   BANK3   BANK2
  2110 ;;      Params:         0       0       0       0       0
  2111 ;;      Locals:         0       0       0       0       0
  2112 ;;      Temps:          0       0       0       0       0
  2113 ;;      Totals:         0       0       0       0       0
  2114 ;;Total ram usage:        0 bytes
  2115 ;; Hardware stack levels used: 1
  2116 ;; Hardware stack levels required when called: 4
  2117 ;; This function calls:
  2118 ;;		Nothing
  2119 ;; This function is called by:
  2120 ;;		_main
  2121 ;; This function uses a non-reentrant model
  2122 ;;
  2123                           
  2124     13B5                     _Int_Enable:	
  2125                           ;psect for function _Int_Enable
  2126                           
  2127     13B5                     l2961:	
  2128                           ;incstack = 0
  2129                           ; Regs used in _Int_Enable: []
  2130                           
  2131                           
  2132                           ;Proyecto_2.c: 282:     T0IF = 0;
  2133     13B5  110B               	bcf	11,2	;volatile
  2134                           
  2135                           ;Proyecto_2.c: 283:     T0IE = 0;
  2136     13B6  128B               	bcf	11,5	;volatile
  2137                           
  2138                           ;Proyecto_2.c: 285:     RBIF = 0;
  2139     13B7  100B               	bcf	11,0	;volatile
  2140                           
  2141                           ;Proyecto_2.c: 286:     RBIE = 1;
  2142     13B8  158B               	bsf	11,3	;volatile
  2143                           
  2144                           ;Proyecto_2.c: 288:     PEIE = 1;
  2145     13B9  170B               	bsf	11,6	;volatile
  2146                           
  2147                           ;Proyecto_2.c: 289:     GIE = 1;
  2148     13BA  178B               	bsf	11,7	;volatile
  2149     13BB                     l154:
  2150     13BB  0008               	return
  2151     13BC                     __end_of_Int_Enable:
  2152                           
  2153                           	psect	text5
  2154     07E8                     __ptext5:	
  2155 ;; *************** function _EUSART_Init *****************
  2156 ;; Defined at:
  2157 ;;		line 3 in file "EUSART.c"
  2158 ;; Parameters:    Size  Location     Type
  2159 ;;		None
  2160 ;; Auto vars:     Size  Location     Type
  2161 ;;		None
  2162 ;; Return value:  Size  Location     Type
  2163 ;;                  1    wreg      void 
  2164 ;; Registers used:
  2165 ;;		wreg, status,2
  2166 ;; Tracked objects:
  2167 ;;		On entry : 0/0
  2168 ;;		On exit  : 0/0
  2169 ;;		Unchanged: 0/0
  2170 ;; Data sizes:     COMMON   BANK0   BANK1   BANK3   BANK2
  2171 ;;      Params:         0       0       0       0       0
  2172 ;;      Locals:         0       0       0       0       0
  2173 ;;      Temps:          0       0       0       0       0
  2174 ;;      Totals:         0       0       0       0       0
  2175 ;;Total ram usage:        0 bytes
  2176 ;; Hardware stack levels used: 1
  2177 ;; Hardware stack levels required when called: 4
  2178 ;; This function calls:
  2179 ;;		Nothing
  2180 ;; This function is called by:
  2181 ;;		_main
  2182 ;; This function uses a non-reentrant model
  2183 ;;
  2184                           
  2185     07E8                     _EUSART_Init:	
  2186                           ;psect for function _EUSART_Init
  2187                           
  2188     07E8                     l3029:	
  2189                           ;incstack = 0
  2190                           ; Regs used in _EUSART_Init: [wreg+status,2]
  2191                           
  2192                           
  2193                           ;EUSART.c: 5:     SPBRGH = 0;
  2194     07E8  1683               	bsf	3,5	;RP0=1, select bank1
  2195     07E9  1303               	bcf	3,6	;RP1=0, select bank1
  2196     07EA  019A               	clrf	26	;volatile
  2197     07EB                     l3031:
  2198                           
  2199                           ;EUSART.c: 6:     SPBRG = 25;
  2200     07EB  3019               	movlw	25
  2201     07EC  0099               	movwf	25	;volatile
  2202     07ED                     l3033:
  2203                           
  2204                           ;EUSART.c: 8:     RCSTAbits.SPEN = 1;
  2205     07ED  1283               	bcf	3,5	;RP0=0, select bank0
  2206     07EE  1303               	bcf	3,6	;RP1=0, select bank0
  2207     07EF  1798               	bsf	24,7	;volatile
  2208     07F0                     l3035:
  2209                           
  2210                           ;EUSART.c: 10:     TXSTAbits.TXEN = 1;
  2211     07F0  1683               	bsf	3,5	;RP0=1, select bank1
  2212     07F1  1303               	bcf	3,6	;RP1=0, select bank1
  2213     07F2  1698               	bsf	24,5	;volatile
  2214     07F3                     l3037:
  2215                           
  2216                           ;EUSART.c: 11:     RCSTAbits.CREN = 1;
  2217     07F3  1283               	bcf	3,5	;RP0=0, select bank0
  2218     07F4  1303               	bcf	3,6	;RP1=0, select bank0
  2219     07F5  1618               	bsf	24,4	;volatile
  2220     07F6                     l3039:
  2221                           
  2222                           ;EUSART.c: 13:     TXSTAbits.SYNC = 0;
  2223     07F6  1683               	bsf	3,5	;RP0=1, select bank1
  2224     07F7  1303               	bcf	3,6	;RP1=0, select bank1
  2225     07F8  1218               	bcf	24,4	;volatile
  2226     07F9                     l3041:
  2227                           
  2228                           ;EUSART.c: 14:     TXSTAbits.BRGH = 1;
  2229     07F9  1518               	bsf	24,2	;volatile
  2230     07FA                     l3043:
  2231                           
  2232                           ;EUSART.c: 15:     TXSTAbits.SENDB = 1;
  2233     07FA  1598               	bsf	24,3	;volatile
  2234     07FB                     l3045:
  2235                           
  2236                           ;EUSART.c: 17:     TXSTAbits.TX9 = 0;
  2237     07FB  1318               	bcf	24,6	;volatile
  2238     07FC                     l3047:
  2239                           
  2240                           ;EUSART.c: 18:     RCSTAbits.RX9 = 0;
  2241     07FC  1283               	bcf	3,5	;RP0=0, select bank0
  2242     07FD  1303               	bcf	3,6	;RP1=0, select bank0
  2243     07FE  1318               	bcf	24,6	;volatile
  2244     07FF                     l222:
  2245     07FF  0008               	return
  2246     0800                     __end_of_EUSART_Init:
  2247                           
  2248                           	psect	text6
  2249     13A6                     __ptext6:	
  2250 ;; *************** function _EUSART_Disable_TX_Isr *****************
  2251 ;; Defined at:
  2252 ;;		line 31 in file "EUSART.c"
  2253 ;; Parameters:    Size  Location     Type
  2254 ;;		None
  2255 ;; Auto vars:     Size  Location     Type
  2256 ;;		None
  2257 ;; Return value:  Size  Location     Type
  2258 ;;                  1    wreg      void 
  2259 ;; Registers used:
  2260 ;;		None
  2261 ;; Tracked objects:
  2262 ;;		On entry : 0/0
  2263 ;;		On exit  : 0/0
  2264 ;;		Unchanged: 0/0
  2265 ;; Data sizes:     COMMON   BANK0   BANK1   BANK3   BANK2
  2266 ;;      Params:         0       0       0       0       0
  2267 ;;      Locals:         0       0       0       0       0
  2268 ;;      Temps:          0       0       0       0       0
  2269 ;;      Totals:         0       0       0       0       0
  2270 ;;Total ram usage:        0 bytes
  2271 ;; Hardware stack levels used: 1
  2272 ;; Hardware stack levels required when called: 4
  2273 ;; This function calls:
  2274 ;;		Nothing
  2275 ;; This function is called by:
  2276 ;;		_main
  2277 ;; This function uses a non-reentrant model
  2278 ;;
  2279                           
  2280     13A6                     _EUSART_Disable_TX_Isr:	
  2281                           ;psect for function _EUSART_Disable_TX_Isr
  2282                           
  2283     13A6                     l3049:	
  2284                           ;incstack = 0
  2285                           ; Regs used in _EUSART_Disable_TX_Isr: []
  2286                           
  2287                           
  2288                           ;EUSART.c: 33:     PIE1bits.TXIE = 0;
  2289     13A6  1683               	bsf	3,5	;RP0=1, select bank1
  2290     13A7  1303               	bcf	3,6	;RP1=0, select bank1
  2291     13A8  120C               	bcf	12,4	;volatile
  2292     13A9                     l231:
  2293     13A9  0008               	return
  2294     13AA                     __end_of_EUSART_Disable_TX_Isr:
  2295                           
  2296                           	psect	text7
  2297     13A2                     __ptext7:	
  2298 ;; *************** function _EUSART_Disable_RX_Isr *****************
  2299 ;; Defined at:
  2300 ;;		line 36 in file "EUSART.c"
  2301 ;; Parameters:    Size  Location     Type
  2302 ;;		None
  2303 ;; Auto vars:     Size  Location     Type
  2304 ;;		None
  2305 ;; Return value:  Size  Location     Type
  2306 ;;                  1    wreg      void 
  2307 ;; Registers used:
  2308 ;;		None
  2309 ;; Tracked objects:
  2310 ;;		On entry : 0/0
  2311 ;;		On exit  : 0/0
  2312 ;;		Unchanged: 0/0
  2313 ;; Data sizes:     COMMON   BANK0   BANK1   BANK3   BANK2
  2314 ;;      Params:         0       0       0       0       0
  2315 ;;      Locals:         0       0       0       0       0
  2316 ;;      Temps:          0       0       0       0       0
  2317 ;;      Totals:         0       0       0       0       0
  2318 ;;Total ram usage:        0 bytes
  2319 ;; Hardware stack levels used: 1
  2320 ;; Hardware stack levels required when called: 4
  2321 ;; This function calls:
  2322 ;;		Nothing
  2323 ;; This function is called by:
  2324 ;;		_main
  2325 ;; This function uses a non-reentrant model
  2326 ;;
  2327                           
  2328     13A2                     _EUSART_Disable_RX_Isr:	
  2329                           ;psect for function _EUSART_Disable_RX_Isr
  2330                           
  2331     13A2                     l3051:	
  2332                           ;incstack = 0
  2333                           ; Regs used in _EUSART_Disable_RX_Isr: []
  2334                           
  2335                           
  2336                           ;EUSART.c: 38:     PIE1bits.RCIE = 0;
  2337     13A2  1683               	bsf	3,5	;RP0=1, select bank1
  2338     13A3  1303               	bcf	3,6	;RP1=0, select bank1
  2339     13A4  128C               	bcf	12,5	;volatile
  2340     13A5                     l234:
  2341     13A5  0008               	return
  2342     13A6                     __end_of_EUSART_Disable_RX_Isr:
  2343                           
  2344                           	psect	text8
  2345     13AE                     __ptext8:	
  2346 ;; *************** function _ADC_Isr_Enable *****************
  2347 ;; Defined at:
  2348 ;;		line 19 in file "ADC.c"
  2349 ;; Parameters:    Size  Location     Type
  2350 ;;		None
  2351 ;; Auto vars:     Size  Location     Type
  2352 ;;		None
  2353 ;; Return value:  Size  Location     Type
  2354 ;;                  1    wreg      void 
  2355 ;; Registers used:
  2356 ;;		None
  2357 ;; Tracked objects:
  2358 ;;		On entry : 0/0
  2359 ;;		On exit  : 0/0
  2360 ;;		Unchanged: 0/0
  2361 ;; Data sizes:     COMMON   BANK0   BANK1   BANK3   BANK2
  2362 ;;      Params:         0       0       0       0       0
  2363 ;;      Locals:         0       0       0       0       0
  2364 ;;      Temps:          0       0       0       0       0
  2365 ;;      Totals:         0       0       0       0       0
  2366 ;;Total ram usage:        0 bytes
  2367 ;; Hardware stack levels used: 1
  2368 ;; Hardware stack levels required when called: 4
  2369 ;; This function calls:
  2370 ;;		Nothing
  2371 ;; This function is called by:
  2372 ;;		_main
  2373 ;; This function uses a non-reentrant model
  2374 ;;
  2375                           
  2376     13AE                     _ADC_Isr_Enable:	
  2377                           ;psect for function _ADC_Isr_Enable
  2378                           
  2379     13AE                     l3027:	
  2380                           ;incstack = 0
  2381                           ; Regs used in _ADC_Isr_Enable: []
  2382                           
  2383                           
  2384                           ;ADC.c: 21:     ADIF = 0;
  2385     13AE  1283               	bcf	3,5	;RP0=0, select bank0
  2386     13AF  1303               	bcf	3,6	;RP1=0, select bank0
  2387     13B0  130C               	bcf	12,6	;volatile
  2388                           
  2389                           ;ADC.c: 22:     ADIE = 1;
  2390     13B1  1683               	bsf	3,5	;RP0=1, select bank1
  2391     13B2  1303               	bcf	3,6	;RP1=0, select bank1
  2392     13B3  170C               	bsf	12,6	;volatile
  2393     13B4                     l196:
  2394     13B4  0008               	return
  2395     13B5                     __end_of_ADC_Isr_Enable:
  2396                           
  2397                           	psect	text9
  2398     13CC                     __ptext9:	
  2399 ;; *************** function _ADC_Int *****************
  2400 ;; Defined at:
  2401 ;;		line 3 in file "ADC.c"
  2402 ;; Parameters:    Size  Location     Type
  2403 ;;  ADFM_Select     1    wreg     unsigned char 
  2404 ;; Auto vars:     Size  Location     Type
  2405 ;;  ADFM_Select     1   21[BANK1 ] unsigned char 
  2406 ;; Return value:  Size  Location     Type
  2407 ;;                  1    wreg      void 
  2408 ;; Registers used:
  2409 ;;		wreg, status,0
  2410 ;; Tracked objects:
  2411 ;;		On entry : 0/0
  2412 ;;		On exit  : 0/0
  2413 ;;		Unchanged: 0/0
  2414 ;; Data sizes:     COMMON   BANK0   BANK1   BANK3   BANK2
  2415 ;;      Params:         0       0       0       0       0
  2416 ;;      Locals:         0       0       1       0       0
  2417 ;;      Temps:          0       0       0       0       0
  2418 ;;      Totals:         0       0       1       0       0
  2419 ;;Total ram usage:        1 bytes
  2420 ;; Hardware stack levels used: 1
  2421 ;; Hardware stack levels required when called: 4
  2422 ;; This function calls:
  2423 ;;		Nothing
  2424 ;; This function is called by:
  2425 ;;		_main
  2426 ;; This function uses a non-reentrant model
  2427 ;;
  2428                           
  2429     13CC                     _ADC_Int:	
  2430                           ;psect for function _ADC_Int
  2431                           
  2432                           
  2433                           ;incstack = 0
  2434                           ; Regs used in _ADC_Int: [wreg+status,0]
  2435                           ;ADC_Int@ADFM_Select stored from wreg
  2436     13CC  1683               	bsf	3,5	;RP0=1, select bank1
  2437     13CD  1303               	bcf	3,6	;RP1=0, select bank1
  2438     13CE  00B5               	movwf	ADC_Int@ADFM_Select^(0+128)
  2439     13CF                     l3019:
  2440                           
  2441                           ;ADC.c: 3: void ADC_Int(uint8_t ADFM_Select);ADC.c: 4: {;ADC.c: 5:     ADCON0 = 0b100000
      +                          01;
  2442     13CF  3081               	movlw	129
  2443     13D0  1283               	bcf	3,5	;RP0=0, select bank0
  2444     13D1  1303               	bcf	3,6	;RP1=0, select bank0
  2445     13D2  009F               	movwf	31	;volatile
  2446     13D3                     l3021:
  2447                           
  2448                           ;ADC.c: 6:     ADCON1bits.ADFM = ADFM_Select;
  2449     13D3  1683               	bsf	3,5	;RP0=1, select bank1
  2450     13D4  1303               	bcf	3,6	;RP1=0, select bank1
  2451     13D5  0C35               	rrf	ADC_Int@ADFM_Select^(0+128),w
  2452     13D6  1C03               	skipc
  2453     13D7  139F               	bcf	31,7	;volatile
  2454     13D8  1803               	skipnc
  2455     13D9  179F               	bsf	31,7	;volatile
  2456     13DA                     l3023:
  2457                           
  2458                           ;ADC.c: 7:     ADCON1bits.VCFG1 = 0;
  2459     13DA  129F               	bcf	31,5	;volatile
  2460     13DB                     l3025:
  2461                           
  2462                           ;ADC.c: 8:     ADCON1bits.VCFG0 = 0;
  2463     13DB  121F               	bcf	31,4	;volatile
  2464     13DC                     l190:
  2465     13DC  0008               	return
  2466     13DD                     __end_of_ADC_Int:
  2467                           
  2468                           	psect	text10
  2469     15FA                     __ptext10:	
  2470 ;; *************** function _ADC_Change *****************
  2471 ;; Defined at:
  2472 ;;		line 296 in file "Proyecto_2.c"
  2473 ;; Parameters:    Size  Location     Type
  2474 ;;		None
  2475 ;; Auto vars:     Size  Location     Type
  2476 ;;		None
  2477 ;; Return value:  Size  Location     Type
  2478 ;;                  1    wreg      void 
  2479 ;; Registers used:
  2480 ;;		wreg, status,2, status,0, pclath, cstack
  2481 ;; Tracked objects:
  2482 ;;		On entry : 0/0
  2483 ;;		On exit  : 0/0
  2484 ;;		Unchanged: 0/0
  2485 ;; Data sizes:     COMMON   BANK0   BANK1   BANK3   BANK2
  2486 ;;      Params:         0       0       0       0       0
  2487 ;;      Locals:         0       0       0       0       0
  2488 ;;      Temps:          0       0       0       0       0
  2489 ;;      Totals:         0       0       0       0       0
  2490 ;;Total ram usage:        0 bytes
  2491 ;; Hardware stack levels used: 1
  2492 ;; Hardware stack levels required when called: 5
  2493 ;; This function calls:
  2494 ;;		_ADC_Select
  2495 ;; This function is called by:
  2496 ;;		_main
  2497 ;; This function uses a non-reentrant model
  2498 ;;
  2499                           
  2500     15FA                     _ADC_Change:	
  2501                           ;psect for function _ADC_Change
  2502                           
  2503     15FA                     l2963:	
  2504                           ;incstack = 0
  2505                           ; Regs used in _ADC_Change: [wreg+status,2+status,0+pclath+cstack]
  2506                           
  2507                           
  2508                           ;Proyecto_2.c: 298:     if (ADCON0bits.GO)
  2509     15FA  1283               	bcf	3,5	;RP0=0, select bank0
  2510     15FB  1303               	bcf	3,6	;RP1=0, select bank0
  2511     15FC  1C9F               	btfss	31,1	;volatile
  2512     15FD  2DFF               	goto	u3951
  2513     15FE  2E00               	goto	u3950
  2514     15FF                     u3951:
  2515     15FF  2E01               	goto	l2969
  2516     1600                     u3950:
  2517     1600  2E4F               	goto	l158
  2518     1601                     l2969:
  2519     1601  1683               	bsf	3,5	;RP0=1, select bank3
  2520     1602  1703               	bsf	3,6	;RP1=1, select bank3
  2521     1603  0865               	movf	_Bandera_ADC^(0+384),w
  2522     1604  1D03               	btfss	3,2
  2523     1605  2E07               	goto	u3961
  2524     1606  2E08               	goto	u3960
  2525     1607                     u3961:
  2526     1607  2E13               	goto	l2973
  2527     1608                     u3960:
  2528     1608                     l2971:
  2529                           
  2530                           ;Proyecto_2.c: 303:     {;Proyecto_2.c: 304:         ADC_Select(0);
  2531     1608  3000               	movlw	0
  2532     1609  1283               	bcf	3,5	;RP0=0, select bank2
  2533     160A  1703               	bsf	3,6	;RP1=1, select bank2
  2534     160B  0090               	movwf	ADC_Select@channel^(0+256)
  2535     160C  0091               	movwf	(ADC_Select@channel+1)^(0+256)
  2536     160D  120A  158A  2107  160A  118A  	fcall	_ADC_Select
  2537                           
  2538                           ;Proyecto_2.c: 305:     }
  2539     1612  2E48               	goto	l167
  2540     1613                     l2973:
  2541     1613  0365               	decf	_Bandera_ADC^(0+384),w
  2542     1614  1D03               	btfss	3,2
  2543     1615  2E17               	goto	u3971
  2544     1616  2E18               	goto	u3970
  2545     1617                     u3971:
  2546     1617  2E24               	goto	l2977
  2547     1618                     u3970:
  2548     1618                     l2975:
  2549                           
  2550                           ;Proyecto_2.c: 307:     {;Proyecto_2.c: 308:         ADC_Select(1);
  2551     1618  3001               	movlw	1
  2552     1619  1283               	bcf	3,5	;RP0=0, select bank2
  2553     161A  1703               	bsf	3,6	;RP1=1, select bank2
  2554     161B  0090               	movwf	ADC_Select@channel^(0+256)
  2555     161C  3000               	movlw	0
  2556     161D  0091               	movwf	(ADC_Select@channel^(0+256)+1)
  2557     161E  120A  158A  2107  160A  118A  	fcall	_ADC_Select
  2558                           
  2559                           ;Proyecto_2.c: 309:     }
  2560     1623  2E48               	goto	l167
  2561     1624                     l2977:
  2562     1624  3002               	movlw	2
  2563     1625  0665               	xorwf	_Bandera_ADC^(0+384),w
  2564     1626  1D03               	btfss	3,2
  2565     1627  2E29               	goto	u3981
  2566     1628  2E2A               	goto	u3980
  2567     1629                     u3981:
  2568     1629  2E36               	goto	l2981
  2569     162A                     u3980:
  2570     162A                     l2979:
  2571                           
  2572                           ;Proyecto_2.c: 311:     {;Proyecto_2.c: 312:         ADC_Select(2);
  2573     162A  3002               	movlw	2
  2574     162B  1283               	bcf	3,5	;RP0=0, select bank2
  2575     162C  1703               	bsf	3,6	;RP1=1, select bank2
  2576     162D  0090               	movwf	ADC_Select@channel^(0+256)
  2577     162E  3000               	movlw	0
  2578     162F  0091               	movwf	(ADC_Select@channel^(0+256)+1)
  2579     1630  120A  158A  2107  160A  118A  	fcall	_ADC_Select
  2580                           
  2581                           ;Proyecto_2.c: 313:     }
  2582     1635  2E48               	goto	l167
  2583     1636                     l2981:
  2584     1636  3003               	movlw	3
  2585     1637  0665               	xorwf	_Bandera_ADC^(0+384),w
  2586     1638  1D03               	btfss	3,2
  2587     1639  2E3B               	goto	u3991
  2588     163A  2E3C               	goto	u3990
  2589     163B                     u3991:
  2590     163B  2E48               	goto	l161
  2591     163C                     u3990:
  2592     163C                     l2983:
  2593                           
  2594                           ;Proyecto_2.c: 315:     {;Proyecto_2.c: 316:         ADC_Select(3);
  2595     163C  3003               	movlw	3
  2596     163D  1283               	bcf	3,5	;RP0=0, select bank2
  2597     163E  1703               	bsf	3,6	;RP1=1, select bank2
  2598     163F  0090               	movwf	ADC_Select@channel^(0+256)
  2599     1640  3000               	movlw	0
  2600     1641  0091               	movwf	(ADC_Select@channel^(0+256)+1)
  2601     1642  120A  158A  2107  160A  118A  	fcall	_ADC_Select
  2602     1647  2E48               	goto	l167
  2603     1648                     l161:
  2604     1648                     l167:
  2605     1648  1283               	bcf	3,5	;RP0=0, select bank0
  2606     1649  1303               	bcf	3,6	;RP1=0, select bank0
  2607     164A  189F               	btfsc	31,1	;volatile
  2608     164B  2E4D               	goto	u4001
  2609     164C  2E4E               	goto	u4000
  2610     164D                     u4001:
  2611     164D  2E48               	goto	l167
  2612     164E                     u4000:
  2613     164E                     l169:
  2614                           
  2615                           ;Proyecto_2.c: 319:     ADCON0bits.GO = 1;
  2616     164E  149F               	bsf	31,1	;volatile
  2617     164F                     l158:
  2618     164F  0008               	return
  2619     1650                     __end_of_ADC_Change:
  2620                           
  2621                           	psect	text11
  2622     0907                     __ptext11:	
  2623 ;; *************** function _ADC_Select *****************
  2624 ;; Defined at:
  2625 ;;		line 11 in file "ADC.c"
  2626 ;; Parameters:    Size  Location     Type
  2627 ;;  channel         2    0[BANK2 ] int 
  2628 ;; Auto vars:     Size  Location     Type
  2629 ;;		None
  2630 ;; Return value:  Size  Location     Type
  2631 ;;                  1    wreg      void 
  2632 ;; Registers used:
  2633 ;;		wreg, status,2, status,0
  2634 ;; Tracked objects:
  2635 ;;		On entry : 0/0
  2636 ;;		On exit  : 0/0
  2637 ;;		Unchanged: 0/0
  2638 ;; Data sizes:     COMMON   BANK0   BANK1   BANK3   BANK2
  2639 ;;      Params:         0       0       0       0       2
  2640 ;;      Locals:         0       0       0       0       0
  2641 ;;      Temps:          0       0       3       0       0
  2642 ;;      Totals:         0       0       3       0       2
  2643 ;;Total ram usage:        5 bytes
  2644 ;; Hardware stack levels used: 1
  2645 ;; Hardware stack levels required when called: 4
  2646 ;; This function calls:
  2647 ;;		Nothing
  2648 ;; This function is called by:
  2649 ;;		_ADC_Change
  2650 ;; This function uses a non-reentrant model
  2651 ;;
  2652                           
  2653     0907                     _ADC_Select:	
  2654                           ;psect for function _ADC_Select
  2655                           
  2656     0907                     l2219:	
  2657                           ;incstack = 0
  2658                           ; Regs used in _ADC_Select: [wreg+status,2+status,0]
  2659                           
  2660                           
  2661                           ;ADC.c: 11: void ADC_Select(int channel);ADC.c: 12: {;ADC.c: 13:     ADCON0bits.CHS0 = (
      +                          channel >> 0) & 0x01;
  2662     0907  1283               	bcf	3,5	;RP0=0, select bank2
  2663     0908  1703               	bsf	3,6	;RP1=1, select bank2
  2664     0909  0810               	movf	ADC_Select@channel^(0+256),w
  2665     090A  3901               	andlw	1
  2666     090B  1683               	bsf	3,5	;RP0=1, select bank1
  2667     090C  1303               	bcf	3,6	;RP1=0, select bank1
  2668     090D  00B5               	movwf	??_ADC_Select^(0+128)
  2669     090E  0DB5               	rlf	??_ADC_Select^(0+128),f
  2670     090F  0DB5               	rlf	??_ADC_Select^(0+128),f
  2671     0910  1283               	bcf	3,5	;RP0=0, select bank0
  2672     0911  1303               	bcf	3,6	;RP1=0, select bank0
  2673     0912  081F               	movf	31,w	;volatile
  2674     0913  1683               	bsf	3,5	;RP0=1, select bank1
  2675     0914  1303               	bcf	3,6	;RP1=0, select bank1
  2676     0915  0635               	xorwf	??_ADC_Select^(0+128),w
  2677     0916  39FB               	andlw	-5
  2678     0917  0635               	xorwf	??_ADC_Select^(0+128),w
  2679     0918  1283               	bcf	3,5	;RP0=0, select bank0
  2680     0919  1303               	bcf	3,6	;RP1=0, select bank0
  2681     091A  009F               	movwf	31	;volatile
  2682                           
  2683                           ;ADC.c: 14:     ADCON0bits.CHS1 = (channel >> 1) & 0x01;
  2684     091B  1283               	bcf	3,5	;RP0=0, select bank2
  2685     091C  1703               	bsf	3,6	;RP1=1, select bank2
  2686     091D  0811               	movf	(ADC_Select@channel+1)^(0+256),w
  2687     091E  1683               	bsf	3,5	;RP0=1, select bank1
  2688     091F  1303               	bcf	3,6	;RP1=0, select bank1
  2689     0920  00B6               	movwf	(??_ADC_Select^(0+128)+1)
  2690     0921  1283               	bcf	3,5	;RP0=0, select bank2
  2691     0922  1703               	bsf	3,6	;RP1=1, select bank2
  2692     0923  0810               	movf	ADC_Select@channel^(0+256),w
  2693     0924  1683               	bsf	3,5	;RP0=1, select bank1
  2694     0925  1303               	bcf	3,6	;RP1=0, select bank1
  2695     0926  00B5               	movwf	??_ADC_Select^(0+128)
  2696     0927  0D36               	rlf	(??_ADC_Select^(0+128)+1),w
  2697     0928  0CB6               	rrf	(??_ADC_Select^(0+128)+1),f
  2698     0929  0CB5               	rrf	??_ADC_Select^(0+128),f
  2699     092A  0835               	movf	??_ADC_Select^(0+128),w
  2700     092B  3901               	andlw	1
  2701     092C  00B7               	movwf	(??_ADC_Select+2)^(0+128)
  2702     092D  0DB7               	rlf	(??_ADC_Select+2)^(0+128),f
  2703     092E  0DB7               	rlf	(??_ADC_Select+2)^(0+128),f
  2704     092F  0DB7               	rlf	(??_ADC_Select+2)^(0+128),f
  2705     0930  1283               	bcf	3,5	;RP0=0, select bank0
  2706     0931  1303               	bcf	3,6	;RP1=0, select bank0
  2707     0932  081F               	movf	31,w	;volatile
  2708     0933  1683               	bsf	3,5	;RP0=1, select bank1
  2709     0934  1303               	bcf	3,6	;RP1=0, select bank1
  2710     0935  0637               	xorwf	(??_ADC_Select+2)^(0+128),w
  2711     0936  39F7               	andlw	-9
  2712     0937  0637               	xorwf	(??_ADC_Select+2)^(0+128),w
  2713     0938  1283               	bcf	3,5	;RP0=0, select bank0
  2714     0939  1303               	bcf	3,6	;RP1=0, select bank0
  2715     093A  009F               	movwf	31	;volatile
  2716                           
  2717                           ;ADC.c: 15:     ADCON0bits.CHS2 = (channel >> 2) & 0x01;
  2718     093B  1283               	bcf	3,5	;RP0=0, select bank2
  2719     093C  1703               	bsf	3,6	;RP1=1, select bank2
  2720     093D  0811               	movf	(ADC_Select@channel+1)^(0+256),w
  2721     093E  1683               	bsf	3,5	;RP0=1, select bank1
  2722     093F  1303               	bcf	3,6	;RP1=0, select bank1
  2723     0940  00B6               	movwf	(??_ADC_Select^(0+128)+1)
  2724     0941  1283               	bcf	3,5	;RP0=0, select bank2
  2725     0942  1703               	bsf	3,6	;RP1=1, select bank2
  2726     0943  0810               	movf	ADC_Select@channel^(0+256),w
  2727     0944  1683               	bsf	3,5	;RP0=1, select bank1
  2728     0945  1303               	bcf	3,6	;RP1=0, select bank1
  2729     0946  00B5               	movwf	??_ADC_Select^(0+128)
  2730     0947  0D36               	rlf	(??_ADC_Select^(0+128)+1),w
  2731     0948  0CB6               	rrf	(??_ADC_Select^(0+128)+1),f
  2732     0949  0CB5               	rrf	??_ADC_Select^(0+128),f
  2733     094A  0D36               	rlf	(??_ADC_Select^(0+128)+1),w
  2734     094B  0CB6               	rrf	(??_ADC_Select^(0+128)+1),f
  2735     094C  0CB5               	rrf	??_ADC_Select^(0+128),f
  2736     094D  0835               	movf	??_ADC_Select^(0+128),w
  2737     094E  3901               	andlw	1
  2738     094F  00B7               	movwf	(??_ADC_Select+2)^(0+128)
  2739     0950  0EB7               	swapf	(??_ADC_Select+2)^(0+128),f
  2740     0951  1283               	bcf	3,5	;RP0=0, select bank0
  2741     0952  1303               	bcf	3,6	;RP1=0, select bank0
  2742     0953  081F               	movf	31,w	;volatile
  2743     0954  1683               	bsf	3,5	;RP0=1, select bank1
  2744     0955  1303               	bcf	3,6	;RP1=0, select bank1
  2745     0956  0637               	xorwf	(??_ADC_Select+2)^(0+128),w
  2746     0957  39EF               	andlw	-17
  2747     0958  0637               	xorwf	(??_ADC_Select+2)^(0+128),w
  2748     0959  1283               	bcf	3,5	;RP0=0, select bank0
  2749     095A  1303               	bcf	3,6	;RP1=0, select bank0
  2750     095B  009F               	movwf	31	;volatile
  2751                           
  2752                           ;ADC.c: 16:     ADCON0bits.CHS3 = (channel >> 3) & 0x01;
  2753     095C  1283               	bcf	3,5	;RP0=0, select bank2
  2754     095D  1703               	bsf	3,6	;RP1=1, select bank2
  2755     095E  0811               	movf	(ADC_Select@channel+1)^(0+256),w
  2756     095F  1683               	bsf	3,5	;RP0=1, select bank1
  2757     0960  1303               	bcf	3,6	;RP1=0, select bank1
  2758     0961  00B6               	movwf	(??_ADC_Select^(0+128)+1)
  2759     0962  1283               	bcf	3,5	;RP0=0, select bank2
  2760     0963  1703               	bsf	3,6	;RP1=1, select bank2
  2761     0964  0810               	movf	ADC_Select@channel^(0+256),w
  2762     0965  1683               	bsf	3,5	;RP0=1, select bank1
  2763     0966  1303               	bcf	3,6	;RP1=0, select bank1
  2764     0967  00B5               	movwf	??_ADC_Select^(0+128)
  2765     0968  0D36               	rlf	(??_ADC_Select^(0+128)+1),w
  2766     0969  0CB6               	rrf	(??_ADC_Select^(0+128)+1),f
  2767     096A  0CB5               	rrf	??_ADC_Select^(0+128),f
  2768     096B  0D36               	rlf	(??_ADC_Select^(0+128)+1),w
  2769     096C  0CB6               	rrf	(??_ADC_Select^(0+128)+1),f
  2770     096D  0CB5               	rrf	??_ADC_Select^(0+128),f
  2771     096E  0D36               	rlf	(??_ADC_Select^(0+128)+1),w
  2772     096F  0CB6               	rrf	(??_ADC_Select^(0+128)+1),f
  2773     0970  0CB5               	rrf	??_ADC_Select^(0+128),f
  2774     0971  0835               	movf	??_ADC_Select^(0+128),w
  2775     0972  3901               	andlw	1
  2776     0973  00B7               	movwf	(??_ADC_Select+2)^(0+128)
  2777     0974  0EB7               	swapf	(??_ADC_Select+2)^(0+128),f
  2778     0975  0DB7               	rlf	(??_ADC_Select+2)^(0+128),f
  2779     0976  1283               	bcf	3,5	;RP0=0, select bank0
  2780     0977  1303               	bcf	3,6	;RP1=0, select bank0
  2781     0978  081F               	movf	31,w	;volatile
  2782     0979  1683               	bsf	3,5	;RP0=1, select bank1
  2783     097A  1303               	bcf	3,6	;RP1=0, select bank1
  2784     097B  0637               	xorwf	(??_ADC_Select+2)^(0+128),w
  2785     097C  39DF               	andlw	-33
  2786     097D  0637               	xorwf	(??_ADC_Select+2)^(0+128),w
  2787     097E  1283               	bcf	3,5	;RP0=0, select bank0
  2788     097F  1303               	bcf	3,6	;RP1=0, select bank0
  2789     0980  009F               	movwf	31	;volatile
  2790     0981                     l193:
  2791     0981  0008               	return
  2792     0982                     __end_of_ADC_Select:
  2793                           
  2794                           	psect	text12
  2795     0040                     __ptext12:	
  2796 ;; *************** function _isr *****************
  2797 ;; Defined at:
  2798 ;;		line 76 in file "Proyecto_2.c"
  2799 ;; Parameters:    Size  Location     Type
  2800 ;;		None
  2801 ;; Auto vars:     Size  Location     Type
  2802 ;;  buffer         50    0[BANK3 ] unsigned char [50]
  2803 ;;  numStr         12   50[BANK3 ] unsigned char [12]
  2804 ;;  i               2   70[BANK3 ] int 
  2805 ;;  numbers         8   62[BANK3 ] int [4]
  2806 ;; Return value:  Size  Location     Type
  2807 ;;                  1    wreg      void 
  2808 ;; Registers used:
  2809 ;;		wreg, fsr0l, fsr0h, status,2, status,0, btemp+1, pclath, cstack
  2810 ;; Tracked objects:
  2811 ;;		On entry : 0/0
  2812 ;;		On exit  : 0/0
  2813 ;;		Unchanged: 0/0
  2814 ;; Data sizes:     COMMON   BANK0   BANK1   BANK3   BANK2
  2815 ;;      Params:         0       0       0       0       0
  2816 ;;      Locals:         0       0       0      72       0
  2817 ;;      Temps:          0       0       7       0       0
  2818 ;;      Totals:         0       0       7      72       0
  2819 ;;Total ram usage:       79 bytes
  2820 ;; Hardware stack levels used: 1
  2821 ;; Hardware stack levels required when called: 3
  2822 ;; This function calls:
  2823 ;;		_EEPROM_Read
  2824 ;;		_EEPROM_Write
  2825 ;;		_Enviar_Texto
  2826 ;;		_PWM_Mux_Channel_Select
  2827 ;;		_PWM_duty
  2828 ;;		_Recibir_Texto
  2829 ;;		_itoa
  2830 ;;		_map
  2831 ;;		_string_to_int
  2832 ;; This function is called by:
  2833 ;;		Interrupt level 1
  2834 ;; This function uses a non-reentrant model
  2835 ;;
  2836                           
  2837     0040                     _isr:	
  2838                           ;psect for function _isr
  2839                           
  2840     0040                     i1l3053:
  2841                           
  2842                           ;Proyecto_2.c: 78:     if (RBIF)
  2843     0040  1C0B               	btfss	11,0	;volatile
  2844     0041  2843               	goto	u405_21
  2845     0042  2844               	goto	u405_20
  2846     0043                     u405_21:
  2847     0043  286C               	goto	i1l3061
  2848     0044                     u405_20:
  2849     0044                     i1l3055:
  2850                           
  2851                           ;Proyecto_2.c: 79:     {;Proyecto_2.c: 80:         if (!RB0)
  2852     0044  1283               	bcf	3,5	;RP0=0, select bank0
  2853     0045  1303               	bcf	3,6	;RP1=0, select bank0
  2854     0046  1806               	btfsc	6,0	;volatile
  2855     0047  2849               	goto	u406_21
  2856     0048  284A               	goto	u406_20
  2857     0049                     u406_21:
  2858     0049  286B               	goto	i1l3059
  2859     004A                     u406_20:
  2860     004A                     i1l3057:
  2861                           
  2862                           ;Proyecto_2.c: 81:         {;Proyecto_2.c: 82:             Flag_1 = (Flag_1 + 1) % 4;
  2863     004A  1683               	bsf	3,5	;RP0=1, select bank3
  2864     004B  1703               	bsf	3,6	;RP1=1, select bank3
  2865     004C  0864               	movf	_Flag_1^(0+384),w
  2866     004D  3E01               	addlw	1
  2867     004E  3903               	andlw	3
  2868     004F  00E4               	movwf	_Flag_1^(0+384)
  2869                           
  2870                           ;Proyecto_2.c: 83:             PORTB = (PORTB & 0x0F) | (1 << (Flag_1 + 4));
  2871     0050  3001               	movlw	1
  2872     0051  1683               	bsf	3,5	;RP0=1, select bank1
  2873     0052  1303               	bcf	3,6	;RP1=0, select bank1
  2874     0053  00AE               	movwf	??_isr^(0+128)
  2875     0054  1683               	bsf	3,5	;RP0=1, select bank3
  2876     0055  1703               	bsf	3,6	;RP1=1, select bank3
  2877     0056  0864               	movf	_Flag_1^(0+384),w
  2878     0057  3E04               	addlw	4
  2879     0058  3E01               	addlw	1
  2880     0059  1683               	bsf	3,5	;RP0=1, select bank1
  2881     005A  1303               	bcf	3,6	;RP1=0, select bank1
  2882     005B  285E               	goto	u407_24
  2883     005C                     u407_25:
  2884     005C  1003               	clrc
  2885     005D  0DAE               	rlf	??_isr^(0+128),f
  2886     005E                     u407_24:
  2887     005E  3EFF               	addlw	-1
  2888     005F  1D03               	skipz
  2889     0060  285C               	goto	u407_25
  2890     0061  1283               	bcf	3,5	;RP0=0, select bank0
  2891     0062  1303               	bcf	3,6	;RP1=0, select bank0
  2892     0063  0806               	movf	6,w	;volatile
  2893     0064  390F               	andlw	15
  2894     0065  1683               	bsf	3,5	;RP0=1, select bank1
  2895     0066  1303               	bcf	3,6	;RP1=0, select bank1
  2896     0067  042E               	iorwf	??_isr^(0+128),w
  2897     0068  1283               	bcf	3,5	;RP0=0, select bank0
  2898     0069  1303               	bcf	3,6	;RP1=0, select bank0
  2899     006A  0086               	movwf	6	;volatile
  2900     006B                     i1l3059:
  2901                           
  2902                           ;Proyecto_2.c: 85:         RBIF = 0;
  2903     006B  100B               	bcf	11,0	;volatile
  2904     006C                     i1l3061:
  2905                           
  2906                           ;Proyecto_2.c: 90:     if (PORTBbits.RB4 == 1)
  2907     006C  1283               	bcf	3,5	;RP0=0, select bank0
  2908     006D  1E06               	btfss	6,4	;volatile
  2909     006E  2870               	goto	u408_21
  2910     006F  2871               	goto	u408_20
  2911     0070                     u408_21:
  2912     0070  29D7               	goto	i1l125
  2913     0071                     u408_20:
  2914     0071                     i1l3063:
  2915                           
  2916                           ;Proyecto_2.c: 91:     {;Proyecto_2.c: 92:     if (ADIF)
  2917     0071  1F0C               	btfss	12,6	;volatile
  2918     0072  2874               	goto	u409_21
  2919     0073  2875               	goto	u409_20
  2920     0074                     u409_21:
  2921     0074  2CF5               	goto	i1l148
  2922     0075                     u409_20:
  2923     0075                     i1l3065:
  2924                           
  2925                           ;Proyecto_2.c: 93:     {;Proyecto_2.c: 94:         if (Bandera_ADC == 0)
  2926     0075  1683               	bsf	3,5	;RP0=1, select bank3
  2927     0076  1703               	bsf	3,6	;RP1=1, select bank3
  2928     0077  0865               	movf	_Bandera_ADC^(0+384),w
  2929     0078  1D03               	btfss	3,2
  2930     0079  287B               	goto	u410_21
  2931     007A  287C               	goto	u410_20
  2932     007B                     u410_21:
  2933     007B  28CB               	goto	i1l3079
  2934     007C                     u410_20:
  2935     007C                     i1l3067:
  2936                           
  2937                           ;Proyecto_2.c: 95:         {;Proyecto_2.c: 96:             Servo_Pos[0] = ADRESH;
  2938     007C  1283               	bcf	3,5	;RP0=0, select bank0
  2939     007D  1303               	bcf	3,6	;RP1=0, select bank0
  2940     007E  081E               	movf	30,w	;volatile
  2941     007F  1683               	bsf	3,5	;RP0=1, select bank3
  2942     0080  1703               	bsf	3,6	;RP1=1, select bank3
  2943     0081  00D8               	movwf	_Servo_Pos^(0+384)
  2944     0082                     i1l3069:
  2945                           
  2946                           ;Proyecto_2.c: 97:             Servo1_Val = map(Servo_Pos[0],0,255,160,650);
  2947     0082  1683               	bsf	3,5	;RP0=1, select bank1
  2948     0083  1303               	bcf	3,6	;RP1=0, select bank1
  2949     0084  01A2               	clrf	map@x0^(0+128)
  2950     0085  30FF               	movlw	255
  2951     0086  00A3               	movwf	map@x1^(0+128)
  2952     0087  30A0               	movlw	160
  2953     0088  00A4               	movwf	map@y0^(0+128)
  2954     0089  3000               	movlw	0
  2955     008A  00A5               	movwf	(map@y0^(0+128)+1)
  2956     008B  308A               	movlw	138
  2957     008C  00A6               	movwf	map@y1^(0+128)
  2958     008D  3002               	movlw	2
  2959     008E  00A7               	movwf	(map@y1^(0+128)+1)
  2960     008F  1683               	bsf	3,5	;RP0=1, select bank3
  2961     0090  1703               	bsf	3,6	;RP1=1, select bank3
  2962     0091  0858               	movf	_Servo_Pos^(0+384),w
  2963     0092  120A  158A  2182  120A  118A  	fcall	_map
  2964     0097  1683               	bsf	3,5	;RP0=1, select bank1
  2965     0098  1303               	bcf	3,6	;RP1=0, select bank1
  2966     0099  0823               	movf	(?_map+1)^(0+128),w
  2967     009A  1683               	bsf	3,5	;RP0=1, select bank3
  2968     009B  1703               	bsf	3,6	;RP1=1, select bank3
  2969     009C  00E3               	movwf	(_Servo1_Val+1)^(0+384)
  2970     009D  1683               	bsf	3,5	;RP0=1, select bank1
  2971     009E  1303               	bcf	3,6	;RP1=0, select bank1
  2972     009F  0822               	movf	?_map^(0+128),w
  2973     00A0  1683               	bsf	3,5	;RP0=1, select bank3
  2974     00A1  1703               	bsf	3,6	;RP1=1, select bank3
  2975     00A2  00E2               	movwf	_Servo1_Val^(0+384)
  2976     00A3                     i1l3071:
  2977                           
  2978                           ;Proyecto_2.c: 98:             PWM_duty(1,Servo1_Val);
  2979     00A3  0863               	movf	(_Servo1_Val+1)^(0+384),w
  2980     00A4  1683               	bsf	3,5	;RP0=1, select bank1
  2981     00A5  1303               	bcf	3,6	;RP1=0, select bank1
  2982     00A6  00AA               	movwf	(PWM_duty@duty+1)^(0+128)
  2983     00A7  1683               	bsf	3,5	;RP0=1, select bank3
  2984     00A8  1703               	bsf	3,6	;RP1=1, select bank3
  2985     00A9  0862               	movf	_Servo1_Val^(0+384),w
  2986     00AA  1683               	bsf	3,5	;RP0=1, select bank1
  2987     00AB  1303               	bcf	3,6	;RP1=0, select bank1
  2988     00AC  00A9               	movwf	PWM_duty@duty^(0+128)
  2989     00AD  3001               	movlw	1
  2990     00AE  160A  118A  2650  120A  118A  	fcall	_PWM_duty
  2991     00B3                     i1l3073:
  2992                           
  2993                           ;Proyecto_2.c: 99:             PWM_Mux_Channel_Select(0);
  2994     00B3  3000               	movlw	0
  2995     00B4  00F0               	movwf	PWM_Mux_Channel_Select@channel
  2996     00B5  00F1               	movwf	PWM_Mux_Channel_Select@channel+1
  2997     00B6  160A  118A  2507  120A  118A  	fcall	_PWM_Mux_Channel_Select
  2998     00BB                     i1l3075:
  2999                           
  3000                           ;Proyecto_2.c: 100:             _delay((unsigned long)((4)*(4000000/4000.0)));
  3001     00BB  3006               	movlw	6
  3002     00BC  1683               	bsf	3,5	;RP0=1, select bank1
  3003     00BD  1303               	bcf	3,6	;RP1=0, select bank1
  3004     00BE  00AF               	movwf	(??_isr^(0+128)+1)
  3005     00BF  302F               	movlw	47
  3006     00C0  00AE               	movwf	??_isr^(0+128)
  3007     00C1                     u425_27:
  3008     00C1  0BAE               	decfsz	??_isr^(0+128),f
  3009     00C2  28C1               	goto	u425_27
  3010     00C3  0BAF               	decfsz	(??_isr^(0+128)+1),f
  3011     00C4  28C1               	goto	u425_27
  3012     00C5  28C6               	nop2
  3013     00C6                     i1l3077:
  3014                           
  3015                           ;Proyecto_2.c: 101:             Bandera_ADC = 1;
  3016     00C6  1683               	bsf	3,5	;RP0=1, select bank3
  3017     00C7  1703               	bsf	3,6	;RP1=1, select bank3
  3018     00C8  01E5               	clrf	_Bandera_ADC^(0+384)
  3019     00C9  0AE5               	incf	_Bandera_ADC^(0+384),f
  3020                           
  3021                           ;Proyecto_2.c: 102:         }
  3022     00CA  29CB               	goto	i1l3121
  3023     00CB                     i1l3079:
  3024     00CB  0365               	decf	_Bandera_ADC^(0+384),w
  3025     00CC  1D03               	btfss	3,2
  3026     00CD  28CF               	goto	u411_21
  3027     00CE  28D0               	goto	u411_20
  3028     00CF                     u411_21:
  3029     00CF  2920               	goto	i1l3093
  3030     00D0                     u411_20:
  3031     00D0                     i1l3081:
  3032                           
  3033                           ;Proyecto_2.c: 104:         {;Proyecto_2.c: 105:             Servo_Pos[1] = ADRESH;
  3034     00D0  1283               	bcf	3,5	;RP0=0, select bank0
  3035     00D1  1303               	bcf	3,6	;RP1=0, select bank0
  3036     00D2  081E               	movf	30,w	;volatile
  3037     00D3  1683               	bsf	3,5	;RP0=1, select bank3
  3038     00D4  1703               	bsf	3,6	;RP1=1, select bank3
  3039     00D5  00D9               	movwf	(_Servo_Pos^(0+384)+1)
  3040     00D6                     i1l3083:
  3041                           
  3042                           ;Proyecto_2.c: 106:             Servo2_Val = map(Servo_Pos[1],0,255,160,650);
  3043     00D6  1683               	bsf	3,5	;RP0=1, select bank1
  3044     00D7  1303               	bcf	3,6	;RP1=0, select bank1
  3045     00D8  01A2               	clrf	map@x0^(0+128)
  3046     00D9  30FF               	movlw	255
  3047     00DA  00A3               	movwf	map@x1^(0+128)
  3048     00DB  30A0               	movlw	160
  3049     00DC  00A4               	movwf	map@y0^(0+128)
  3050     00DD  3000               	movlw	0
  3051     00DE  00A5               	movwf	(map@y0^(0+128)+1)
  3052     00DF  308A               	movlw	138
  3053     00E0  00A6               	movwf	map@y1^(0+128)
  3054     00E1  3002               	movlw	2
  3055     00E2  00A7               	movwf	(map@y1^(0+128)+1)
  3056     00E3  1683               	bsf	3,5	;RP0=1, select bank3
  3057     00E4  1703               	bsf	3,6	;RP1=1, select bank3
  3058     00E5  0859               	movf	(_Servo_Pos^(0+384)+1),w
  3059     00E6  120A  158A  2182  120A  118A  	fcall	_map
  3060     00EB  1683               	bsf	3,5	;RP0=1, select bank1
  3061     00EC  1303               	bcf	3,6	;RP1=0, select bank1
  3062     00ED  0823               	movf	(?_map+1)^(0+128),w
  3063     00EE  1683               	bsf	3,5	;RP0=1, select bank3
  3064     00EF  1703               	bsf	3,6	;RP1=1, select bank3
  3065     00F0  00E1               	movwf	(_Servo2_Val+1)^(0+384)
  3066     00F1  1683               	bsf	3,5	;RP0=1, select bank1
  3067     00F2  1303               	bcf	3,6	;RP1=0, select bank1
  3068     00F3  0822               	movf	?_map^(0+128),w
  3069     00F4  1683               	bsf	3,5	;RP0=1, select bank3
  3070     00F5  1703               	bsf	3,6	;RP1=1, select bank3
  3071     00F6  00E0               	movwf	_Servo2_Val^(0+384)
  3072     00F7                     i1l3085:
  3073                           
  3074                           ;Proyecto_2.c: 107:             PWM_duty(1,Servo2_Val);
  3075     00F7  0861               	movf	(_Servo2_Val+1)^(0+384),w
  3076     00F8  1683               	bsf	3,5	;RP0=1, select bank1
  3077     00F9  1303               	bcf	3,6	;RP1=0, select bank1
  3078     00FA  00AA               	movwf	(PWM_duty@duty+1)^(0+128)
  3079     00FB  1683               	bsf	3,5	;RP0=1, select bank3
  3080     00FC  1703               	bsf	3,6	;RP1=1, select bank3
  3081     00FD  0860               	movf	_Servo2_Val^(0+384),w
  3082     00FE  1683               	bsf	3,5	;RP0=1, select bank1
  3083     00FF  1303               	bcf	3,6	;RP1=0, select bank1
  3084     0100  00A9               	movwf	PWM_duty@duty^(0+128)
  3085     0101  3001               	movlw	1
  3086     0102  160A  118A  2650  120A  118A  	fcall	_PWM_duty
  3087     0107                     i1l3087:
  3088                           
  3089                           ;Proyecto_2.c: 108:             PWM_Mux_Channel_Select(1);
  3090     0107  3001               	movlw	1
  3091     0108  00F0               	movwf	PWM_Mux_Channel_Select@channel
  3092     0109  3000               	movlw	0
  3093     010A  00F1               	movwf	PWM_Mux_Channel_Select@channel+1
  3094     010B  160A  118A  2507  120A  118A  	fcall	_PWM_Mux_Channel_Select
  3095     0110                     i1l3089:
  3096                           
  3097                           ;Proyecto_2.c: 109:             _delay((unsigned long)((4)*(4000000/4000.0)));
  3098     0110  3006               	movlw	6
  3099     0111  1683               	bsf	3,5	;RP0=1, select bank1
  3100     0112  1303               	bcf	3,6	;RP1=0, select bank1
  3101     0113  00AF               	movwf	(??_isr^(0+128)+1)
  3102     0114  302F               	movlw	47
  3103     0115  00AE               	movwf	??_isr^(0+128)
  3104     0116                     u426_27:
  3105     0116  0BAE               	decfsz	??_isr^(0+128),f
  3106     0117  2916               	goto	u426_27
  3107     0118  0BAF               	decfsz	(??_isr^(0+128)+1),f
  3108     0119  2916               	goto	u426_27
  3109     011A  291B               	nop2
  3110     011B                     i1l3091:
  3111                           
  3112                           ;Proyecto_2.c: 110:             Bandera_ADC = 2;
  3113     011B  3002               	movlw	2
  3114     011C  1683               	bsf	3,5	;RP0=1, select bank3
  3115     011D  1703               	bsf	3,6	;RP1=1, select bank3
  3116     011E  00E5               	movwf	_Bandera_ADC^(0+384)
  3117                           
  3118                           ;Proyecto_2.c: 111:         }
  3119     011F  29CB               	goto	i1l3121
  3120     0120                     i1l3093:
  3121     0120  3002               	movlw	2
  3122     0121  0665               	xorwf	_Bandera_ADC^(0+384),w
  3123     0122  1D03               	btfss	3,2
  3124     0123  2925               	goto	u412_21
  3125     0124  2926               	goto	u412_20
  3126     0125                     u412_21:
  3127     0125  2976               	goto	i1l3107
  3128     0126                     u412_20:
  3129     0126                     i1l3095:
  3130                           
  3131                           ;Proyecto_2.c: 113:         {;Proyecto_2.c: 114:             Servo_Pos[2] = ADRESH;
  3132     0126  1283               	bcf	3,5	;RP0=0, select bank0
  3133     0127  1303               	bcf	3,6	;RP1=0, select bank0
  3134     0128  081E               	movf	30,w	;volatile
  3135     0129  1683               	bsf	3,5	;RP0=1, select bank3
  3136     012A  1703               	bsf	3,6	;RP1=1, select bank3
  3137     012B  00DA               	movwf	(_Servo_Pos^(0+384)+2)
  3138     012C                     i1l3097:
  3139                           
  3140                           ;Proyecto_2.c: 115:             Servo3_Val = map(Servo_Pos[2],0,255,160,650);
  3141     012C  1683               	bsf	3,5	;RP0=1, select bank1
  3142     012D  1303               	bcf	3,6	;RP1=0, select bank1
  3143     012E  01A2               	clrf	map@x0^(0+128)
  3144     012F  30FF               	movlw	255
  3145     0130  00A3               	movwf	map@x1^(0+128)
  3146     0131  30A0               	movlw	160
  3147     0132  00A4               	movwf	map@y0^(0+128)
  3148     0133  3000               	movlw	0
  3149     0134  00A5               	movwf	(map@y0^(0+128)+1)
  3150     0135  308A               	movlw	138
  3151     0136  00A6               	movwf	map@y1^(0+128)
  3152     0137  3002               	movlw	2
  3153     0138  00A7               	movwf	(map@y1^(0+128)+1)
  3154     0139  1683               	bsf	3,5	;RP0=1, select bank3
  3155     013A  1703               	bsf	3,6	;RP1=1, select bank3
  3156     013B  085A               	movf	(_Servo_Pos^(0+384)+2),w
  3157     013C  120A  158A  2182  120A  118A  	fcall	_map
  3158     0141  1683               	bsf	3,5	;RP0=1, select bank1
  3159     0142  1303               	bcf	3,6	;RP1=0, select bank1
  3160     0143  0823               	movf	(?_map+1)^(0+128),w
  3161     0144  1683               	bsf	3,5	;RP0=1, select bank3
  3162     0145  1703               	bsf	3,6	;RP1=1, select bank3
  3163     0146  00DF               	movwf	(_Servo3_Val+1)^(0+384)
  3164     0147  1683               	bsf	3,5	;RP0=1, select bank1
  3165     0148  1303               	bcf	3,6	;RP1=0, select bank1
  3166     0149  0822               	movf	?_map^(0+128),w
  3167     014A  1683               	bsf	3,5	;RP0=1, select bank3
  3168     014B  1703               	bsf	3,6	;RP1=1, select bank3
  3169     014C  00DE               	movwf	_Servo3_Val^(0+384)
  3170     014D                     i1l3099:
  3171                           
  3172                           ;Proyecto_2.c: 116:             PWM_duty(1,Servo3_Val);
  3173     014D  085F               	movf	(_Servo3_Val+1)^(0+384),w
  3174     014E  1683               	bsf	3,5	;RP0=1, select bank1
  3175     014F  1303               	bcf	3,6	;RP1=0, select bank1
  3176     0150  00AA               	movwf	(PWM_duty@duty+1)^(0+128)
  3177     0151  1683               	bsf	3,5	;RP0=1, select bank3
  3178     0152  1703               	bsf	3,6	;RP1=1, select bank3
  3179     0153  085E               	movf	_Servo3_Val^(0+384),w
  3180     0154  1683               	bsf	3,5	;RP0=1, select bank1
  3181     0155  1303               	bcf	3,6	;RP1=0, select bank1
  3182     0156  00A9               	movwf	PWM_duty@duty^(0+128)
  3183     0157  3001               	movlw	1
  3184     0158  160A  118A  2650  120A  118A  	fcall	_PWM_duty
  3185     015D                     i1l3101:
  3186                           
  3187                           ;Proyecto_2.c: 117:             PWM_Mux_Channel_Select(2);
  3188     015D  3002               	movlw	2
  3189     015E  00F0               	movwf	PWM_Mux_Channel_Select@channel
  3190     015F  3000               	movlw	0
  3191     0160  00F1               	movwf	PWM_Mux_Channel_Select@channel+1
  3192     0161  160A  118A  2507  120A  118A  	fcall	_PWM_Mux_Channel_Select
  3193     0166                     i1l3103:
  3194                           
  3195                           ;Proyecto_2.c: 118:             _delay((unsigned long)((4)*(4000000/4000.0)));
  3196     0166  3006               	movlw	6
  3197     0167  1683               	bsf	3,5	;RP0=1, select bank1
  3198     0168  1303               	bcf	3,6	;RP1=0, select bank1
  3199     0169  00AF               	movwf	(??_isr^(0+128)+1)
  3200     016A  302F               	movlw	47
  3201     016B  00AE               	movwf	??_isr^(0+128)
  3202     016C                     u427_27:
  3203     016C  0BAE               	decfsz	??_isr^(0+128),f
  3204     016D  296C               	goto	u427_27
  3205     016E  0BAF               	decfsz	(??_isr^(0+128)+1),f
  3206     016F  296C               	goto	u427_27
  3207     0170  2971               	nop2
  3208     0171                     i1l3105:
  3209                           
  3210                           ;Proyecto_2.c: 119:             Bandera_ADC = 3;
  3211     0171  3003               	movlw	3
  3212     0172  1683               	bsf	3,5	;RP0=1, select bank3
  3213     0173  1703               	bsf	3,6	;RP1=1, select bank3
  3214     0174  00E5               	movwf	_Bandera_ADC^(0+384)
  3215                           
  3216                           ;Proyecto_2.c: 120:         }
  3217     0175  29CB               	goto	i1l3121
  3218     0176                     i1l3107:
  3219     0176  3003               	movlw	3
  3220     0177  0665               	xorwf	_Bandera_ADC^(0+384),w
  3221     0178  1D03               	btfss	3,2
  3222     0179  297B               	goto	u413_21
  3223     017A  297C               	goto	u413_20
  3224     017B                     u413_21:
  3225     017B  29CB               	goto	i1l130
  3226     017C                     u413_20:
  3227     017C                     i1l3109:
  3228                           
  3229                           ;Proyecto_2.c: 122:         {;Proyecto_2.c: 123:             Servo_Pos[3] = ADRESH;
  3230     017C  1283               	bcf	3,5	;RP0=0, select bank0
  3231     017D  1303               	bcf	3,6	;RP1=0, select bank0
  3232     017E  081E               	movf	30,w	;volatile
  3233     017F  1683               	bsf	3,5	;RP0=1, select bank3
  3234     0180  1703               	bsf	3,6	;RP1=1, select bank3
  3235     0181  00DB               	movwf	(_Servo_Pos^(0+384)+3)
  3236     0182                     i1l3111:
  3237                           
  3238                           ;Proyecto_2.c: 124:             Servo4_Val = map(Servo_Pos[3],0,255,160,650);
  3239     0182  1683               	bsf	3,5	;RP0=1, select bank1
  3240     0183  1303               	bcf	3,6	;RP1=0, select bank1
  3241     0184  01A2               	clrf	map@x0^(0+128)
  3242     0185  30FF               	movlw	255
  3243     0186  00A3               	movwf	map@x1^(0+128)
  3244     0187  30A0               	movlw	160
  3245     0188  00A4               	movwf	map@y0^(0+128)
  3246     0189  3000               	movlw	0
  3247     018A  00A5               	movwf	(map@y0^(0+128)+1)
  3248     018B  308A               	movlw	138
  3249     018C  00A6               	movwf	map@y1^(0+128)
  3250     018D  3002               	movlw	2
  3251     018E  00A7               	movwf	(map@y1^(0+128)+1)
  3252     018F  1683               	bsf	3,5	;RP0=1, select bank3
  3253     0190  1703               	bsf	3,6	;RP1=1, select bank3
  3254     0191  085B               	movf	(_Servo_Pos^(0+384)+3),w
  3255     0192  120A  158A  2182  120A  118A  	fcall	_map
  3256     0197  1683               	bsf	3,5	;RP0=1, select bank1
  3257     0198  1303               	bcf	3,6	;RP1=0, select bank1
  3258     0199  0823               	movf	(?_map+1)^(0+128),w
  3259     019A  1683               	bsf	3,5	;RP0=1, select bank3
  3260     019B  1703               	bsf	3,6	;RP1=1, select bank3
  3261     019C  00DD               	movwf	(_Servo4_Val+1)^(0+384)
  3262     019D  1683               	bsf	3,5	;RP0=1, select bank1
  3263     019E  1303               	bcf	3,6	;RP1=0, select bank1
  3264     019F  0822               	movf	?_map^(0+128),w
  3265     01A0  1683               	bsf	3,5	;RP0=1, select bank3
  3266     01A1  1703               	bsf	3,6	;RP1=1, select bank3
  3267     01A2  00DC               	movwf	_Servo4_Val^(0+384)
  3268     01A3                     i1l3113:
  3269                           
  3270                           ;Proyecto_2.c: 125:             PWM_duty(1,Servo4_Val);
  3271     01A3  085D               	movf	(_Servo4_Val+1)^(0+384),w
  3272     01A4  1683               	bsf	3,5	;RP0=1, select bank1
  3273     01A5  1303               	bcf	3,6	;RP1=0, select bank1
  3274     01A6  00AA               	movwf	(PWM_duty@duty+1)^(0+128)
  3275     01A7  1683               	bsf	3,5	;RP0=1, select bank3
  3276     01A8  1703               	bsf	3,6	;RP1=1, select bank3
  3277     01A9  085C               	movf	_Servo4_Val^(0+384),w
  3278     01AA  1683               	bsf	3,5	;RP0=1, select bank1
  3279     01AB  1303               	bcf	3,6	;RP1=0, select bank1
  3280     01AC  00A9               	movwf	PWM_duty@duty^(0+128)
  3281     01AD  3001               	movlw	1
  3282     01AE  160A  118A  2650  120A  118A  	fcall	_PWM_duty
  3283     01B3                     i1l3115:
  3284                           
  3285                           ;Proyecto_2.c: 126:             PWM_Mux_Channel_Select(3);
  3286     01B3  3003               	movlw	3
  3287     01B4  00F0               	movwf	PWM_Mux_Channel_Select@channel
  3288     01B5  3000               	movlw	0
  3289     01B6  00F1               	movwf	PWM_Mux_Channel_Select@channel+1
  3290     01B7  160A  118A  2507  120A  118A  	fcall	_PWM_Mux_Channel_Select
  3291     01BC                     i1l3117:
  3292                           
  3293                           ;Proyecto_2.c: 127:             _delay((unsigned long)((4)*(4000000/4000.0)));
  3294     01BC  3006               	movlw	6
  3295     01BD  1683               	bsf	3,5	;RP0=1, select bank1
  3296     01BE  1303               	bcf	3,6	;RP1=0, select bank1
  3297     01BF  00AF               	movwf	(??_isr^(0+128)+1)
  3298     01C0  302F               	movlw	47
  3299     01C1  00AE               	movwf	??_isr^(0+128)
  3300     01C2                     u428_27:
  3301     01C2  0BAE               	decfsz	??_isr^(0+128),f
  3302     01C3  29C2               	goto	u428_27
  3303     01C4  0BAF               	decfsz	(??_isr^(0+128)+1),f
  3304     01C5  29C2               	goto	u428_27
  3305     01C6  29C7               	nop2
  3306     01C7                     i1l3119:
  3307                           
  3308                           ;Proyecto_2.c: 128:             Bandera_ADC = 0;
  3309     01C7  1683               	bsf	3,5	;RP0=1, select bank3
  3310     01C8  1703               	bsf	3,6	;RP1=1, select bank3
  3311     01C9  01E5               	clrf	_Bandera_ADC^(0+384)
  3312     01CA  29CB               	goto	i1l3121
  3313     01CB                     i1l130:
  3314     01CB                     i1l3121:
  3315                           
  3316                           ;Proyecto_2.c: 130:         ADIF = 0;
  3317     01CB  1283               	bcf	3,5	;RP0=0, select bank0
  3318     01CC  1303               	bcf	3,6	;RP1=0, select bank0
  3319     01CD  130C               	bcf	12,6	;volatile
  3320     01CE                     i1l3123:
  3321                           
  3322                           ;Proyecto_2.c: 131:         Flag_2 = 1;
  3323     01CE  1683               	bsf	3,5	;RP0=1, select bank3
  3324     01CF  1703               	bsf	3,6	;RP1=1, select bank3
  3325     01D0  01E8               	clrf	_Flag_2^(0+384)
  3326     01D1  0AE8               	incf	_Flag_2^(0+384),f
  3327     01D2                     i1l3125:
  3328                           
  3329                           ;Proyecto_2.c: 132:         Flag_3 = 1;
  3330     01D2  1683               	bsf	3,5	;RP0=1, select bank3
  3331     01D3  1703               	bsf	3,6	;RP1=1, select bank3
  3332     01D4  01E7               	clrf	_Flag_3^(0+384)
  3333     01D5  0AE7               	incf	_Flag_3^(0+384),f
  3334     01D6  2CF5               	goto	i1l148
  3335     01D7                     i1l125:	
  3336                           ;Proyecto_2.c: 136:     else if (PORTBbits.RB5 == 1)
  3337                           
  3338     01D7  1E86               	btfss	6,5	;volatile
  3339     01D8  29DA               	goto	u414_21
  3340     01D9  29DB               	goto	u414_20
  3341     01DA                     u414_21:
  3342     01DA  2B4C               	goto	i1l135
  3343     01DB                     u414_20:
  3344     01DB                     i1l3127:
  3345                           
  3346                           ;Proyecto_2.c: 137:     {;Proyecto_2.c: 138:         if (Flag_2 == 1)
  3347     01DB  1683               	bsf	3,5	;RP0=1, select bank3
  3348     01DC  1703               	bsf	3,6	;RP1=1, select bank3
  3349     01DD  0368               	decf	_Flag_2^(0+384),w
  3350     01DE  1D03               	btfss	3,2
  3351     01DF  29E1               	goto	u415_21
  3352     01E0  29E2               	goto	u415_20
  3353     01E1                     u415_21:
  3354     01E1  29F7               	goto	i1l3133
  3355     01E2                     u415_20:
  3356     01E2                     i1l3129:
  3357                           
  3358                           ;Proyecto_2.c: 139:         {;Proyecto_2.c: 140:             Enviar_Texto(" Menu EEPROM 
      +                          \n");
  3359     01E2  30CA               	movlw	(low ((STR_1-__stringbase)| (0+32768)))& (0+255)
  3360     01E3  00F0               	movwf	Enviar_Texto@text
  3361     01E4  3080               	movlw	128
  3362     01E5  00F1               	movwf	Enviar_Texto@text+1
  3363     01E6  160A  118A  2453  120A  118A  	fcall	_Enviar_Texto
  3364                           
  3365                           ;Proyecto_2.c: 141:             Enviar_Texto("Presione Boton 2 para guardar posicion y b
      +                          oton 3 para llamar a posicion \n");
  3366     01EB  3001               	movlw	(low ((STR_2-__stringbase)| (0+32768)))& (0+255)
  3367     01EC  00F0               	movwf	Enviar_Texto@text
  3368     01ED  3080               	movlw	128
  3369     01EE  00F1               	movwf	Enviar_Texto@text+1
  3370     01EF  160A  118A  2453  120A  118A  	fcall	_Enviar_Texto
  3371     01F4                     i1l3131:
  3372                           
  3373                           ;Proyecto_2.c: 142:             Flag_2 = 0;
  3374     01F4  1683               	bsf	3,5	;RP0=1, select bank3
  3375     01F5  1703               	bsf	3,6	;RP1=1, select bank3
  3376     01F6  01E8               	clrf	_Flag_2^(0+384)
  3377     01F7                     i1l3133:
  3378                           
  3379                           ;Proyecto_2.c: 144:         if (RBIF)
  3380     01F7  1C0B               	btfss	11,0	;volatile
  3381     01F8  29FA               	goto	u416_21
  3382     01F9  29FB               	goto	u416_20
  3383     01FA                     u416_21:
  3384     01FA  2CF5               	goto	i1l148
  3385     01FB                     u416_20:
  3386     01FB                     i1l3135:
  3387                           
  3388                           ;Proyecto_2.c: 145:         {;Proyecto_2.c: 146:             if (!RB1)
  3389     01FB  1283               	bcf	3,5	;RP0=0, select bank0
  3390     01FC  1303               	bcf	3,6	;RP1=0, select bank0
  3391     01FD  1886               	btfsc	6,1	;volatile
  3392     01FE  2A00               	goto	u417_21
  3393     01FF  2A01               	goto	u417_20
  3394     0200                     u417_21:
  3395     0200  2A48               	goto	i1l3159
  3396     0201                     u417_20:
  3397     0201                     i1l3137:
  3398                           
  3399                           ;Proyecto_2.c: 147:             {;Proyecto_2.c: 148:                 Enviar_Texto("Escri
      +                          biendo EEPROM \n");
  3400     0201  307F               	movlw	(low ((STR_3-__stringbase)| (0+32768)))& (0+255)
  3401     0202  00F0               	movwf	Enviar_Texto@text
  3402     0203  3080               	movlw	128
  3403     0204  00F1               	movwf	Enviar_Texto@text+1
  3404     0205  160A  118A  2453  120A  118A  	fcall	_Enviar_Texto
  3405     020A                     i1l3139:
  3406                           
  3407                           ;Proyecto_2.c: 149:                 PORTDbits.RD3 = 0;
  3408     020A  1283               	bcf	3,5	;RP0=0, select bank0
  3409     020B  1303               	bcf	3,6	;RP1=0, select bank0
  3410     020C  1188               	bcf	8,3	;volatile
  3411     020D                     i1l3141:
  3412                           
  3413                           ;Proyecto_2.c: 150:                 PORTDbits.RD2 = 1;
  3414     020D  1508               	bsf	8,2	;volatile
  3415     020E                     i1l3143:
  3416                           
  3417                           ;Proyecto_2.c: 151:                 EEPROM_Write(0x00, Servo_Pos[0]);
  3418     020E  1683               	bsf	3,5	;RP0=1, select bank3
  3419     020F  1703               	bsf	3,6	;RP1=1, select bank3
  3420     0210  0858               	movf	_Servo_Pos^(0+384),w
  3421     0211  00F0               	movwf	EEPROM_Write@data
  3422     0212  3000               	movlw	0
  3423     0213  160A  118A  23EF  120A  118A  	fcall	_EEPROM_Write
  3424     0218                     i1l3145:
  3425                           
  3426                           ;Proyecto_2.c: 152:                 EEPROM_Write(0x01, Servo_Pos[1]);
  3427     0218  1683               	bsf	3,5	;RP0=1, select bank3
  3428     0219  1703               	bsf	3,6	;RP1=1, select bank3
  3429     021A  0859               	movf	(_Servo_Pos^(0+384)+1),w
  3430     021B  00F0               	movwf	EEPROM_Write@data
  3431     021C  3001               	movlw	1
  3432     021D  160A  118A  23EF  120A  118A  	fcall	_EEPROM_Write
  3433     0222                     i1l3147:
  3434                           
  3435                           ;Proyecto_2.c: 153:                 EEPROM_Write(0x02, Servo_Pos[2]);
  3436     0222  1683               	bsf	3,5	;RP0=1, select bank3
  3437     0223  1703               	bsf	3,6	;RP1=1, select bank3
  3438     0224  085A               	movf	(_Servo_Pos^(0+384)+2),w
  3439     0225  00F0               	movwf	EEPROM_Write@data
  3440     0226  3002               	movlw	2
  3441     0227  160A  118A  23EF  120A  118A  	fcall	_EEPROM_Write
  3442     022C                     i1l3149:
  3443                           
  3444                           ;Proyecto_2.c: 154:                 EEPROM_Write(0x03, Servo_Pos[3]);
  3445     022C  1683               	bsf	3,5	;RP0=1, select bank3
  3446     022D  1703               	bsf	3,6	;RP1=1, select bank3
  3447     022E  085B               	movf	(_Servo_Pos^(0+384)+3),w
  3448     022F  00F0               	movwf	EEPROM_Write@data
  3449     0230  3003               	movlw	3
  3450     0231  160A  118A  23EF  120A  118A  	fcall	_EEPROM_Write
  3451     0236                     i1l3151:
  3452                           
  3453                           ;Proyecto_2.c: 155:                 PORTDbits.RD3 = 1;
  3454     0236  1283               	bcf	3,5	;RP0=0, select bank0
  3455     0237  1303               	bcf	3,6	;RP1=0, select bank0
  3456     0238  1588               	bsf	8,3	;volatile
  3457     0239                     i1l3153:
  3458                           
  3459                           ;Proyecto_2.c: 156:                 PORTDbits.RD2 = 0;
  3460     0239  1108               	bcf	8,2	;volatile
  3461                           
  3462                           ;Proyecto_2.c: 157:                 Enviar_Texto("Datos Guardados \n");
  3463     023A  30A7               	movlw	(low ((STR_4-__stringbase)| (0+32768)))& (0+255)
  3464     023B  00F0               	movwf	Enviar_Texto@text
  3465     023C  3080               	movlw	128
  3466     023D  00F1               	movwf	Enviar_Texto@text+1
  3467     023E  160A  118A  2453  120A  118A  	fcall	_Enviar_Texto
  3468     0243                     i1l3155:
  3469                           
  3470                           ;Proyecto_2.c: 158:                 Flag_2 = 1;
  3471     0243  1683               	bsf	3,5	;RP0=1, select bank3
  3472     0244  1703               	bsf	3,6	;RP1=1, select bank3
  3473     0245  01E8               	clrf	_Flag_2^(0+384)
  3474     0246  0AE8               	incf	_Flag_2^(0+384),f
  3475     0247                     i1l3157:
  3476                           
  3477                           ;Proyecto_2.c: 159:                 RBIF = 0;
  3478     0247  100B               	bcf	11,0	;volatile
  3479     0248                     i1l3159:
  3480                           
  3481                           ;Proyecto_2.c: 161:             if (!RB2)
  3482     0248  1283               	bcf	3,5	;RP0=0, select bank0
  3483     0249  1303               	bcf	3,6	;RP1=0, select bank0
  3484     024A  1906               	btfsc	6,2	;volatile
  3485     024B  2A4D               	goto	u418_21
  3486     024C  2A4E               	goto	u418_20
  3487     024D                     u418_21:
  3488     024D  2CF5               	goto	i1l148
  3489     024E                     u418_20:
  3490     024E                     i1l3161:
  3491                           
  3492                           ;Proyecto_2.c: 162:             {;Proyecto_2.c: 163:                 Enviar_Texto("leyen
      +                          do EEPROM \n");
  3493     024E  30B9               	movlw	(low ((STR_5-__stringbase)| (0+32768)))& (0+255)
  3494     024F  00F0               	movwf	Enviar_Texto@text
  3495     0250  3080               	movlw	128
  3496     0251  00F1               	movwf	Enviar_Texto@text+1
  3497     0252  160A  118A  2453  120A  118A  	fcall	_Enviar_Texto
  3498     0257                     i1l3163:
  3499                           
  3500                           ;Proyecto_2.c: 164:                 PWM_duty(1,map(EEPROM_Read(0x00),0,255,160,650));
  3501     0257  1683               	bsf	3,5	;RP0=1, select bank1
  3502     0258  1303               	bcf	3,6	;RP1=0, select bank1
  3503     0259  01A2               	clrf	map@x0^(0+128)
  3504     025A  30FF               	movlw	255
  3505     025B  00A3               	movwf	map@x1^(0+128)
  3506     025C  30A0               	movlw	160
  3507     025D  00A4               	movwf	map@y0^(0+128)
  3508     025E  3000               	movlw	0
  3509     025F  00A5               	movwf	(map@y0^(0+128)+1)
  3510     0260  308A               	movlw	138
  3511     0261  00A6               	movwf	map@y1^(0+128)
  3512     0262  3002               	movlw	2
  3513     0263  00A7               	movwf	(map@y1^(0+128)+1)
  3514     0264  3000               	movlw	0
  3515     0265  120A  158A  20F0  120A  118A  	fcall	_EEPROM_Read
  3516     026A  120A  158A  2182  120A  118A  	fcall	_map
  3517     026F  1683               	bsf	3,5	;RP0=1, select bank1
  3518     0270  1303               	bcf	3,6	;RP1=0, select bank1
  3519     0271  0823               	movf	(?_map+1)^(0+128),w
  3520     0272  00AA               	movwf	(PWM_duty@duty+1)^(0+128)
  3521     0273  0822               	movf	?_map^(0+128),w
  3522     0274  00A9               	movwf	PWM_duty@duty^(0+128)
  3523     0275  3001               	movlw	1
  3524     0276  160A  118A  2650  120A  118A  	fcall	_PWM_duty
  3525     027B                     i1l3165:
  3526                           
  3527                           ;Proyecto_2.c: 165:                 PWM_Mux_Channel_Select(0);
  3528     027B  3000               	movlw	0
  3529     027C  00F0               	movwf	PWM_Mux_Channel_Select@channel
  3530     027D  00F1               	movwf	PWM_Mux_Channel_Select@channel+1
  3531     027E  160A  118A  2507  120A  118A  	fcall	_PWM_Mux_Channel_Select
  3532     0283                     i1l3167:
  3533                           
  3534                           ;Proyecto_2.c: 166:                 _delay((unsigned long)((350)*(4000000/4000.0)));
  3535     0283  3002               	movlw	2
  3536     0284  1683               	bsf	3,5	;RP0=1, select bank1
  3537     0285  1303               	bcf	3,6	;RP1=0, select bank1
  3538     0286  00B0               	movwf	(??_isr^(0+128)+2)
  3539     0287  30C7               	movlw	199
  3540     0288  00AF               	movwf	(??_isr^(0+128)+1)
  3541     0289  3087               	movlw	135
  3542     028A  00AE               	movwf	??_isr^(0+128)
  3543     028B                     u429_27:
  3544     028B  0BAE               	decfsz	??_isr^(0+128),f
  3545     028C  2A8B               	goto	u429_27
  3546     028D  0BAF               	decfsz	(??_isr^(0+128)+1),f
  3547     028E  2A8B               	goto	u429_27
  3548     028F  0BB0               	decfsz	(??_isr^(0+128)+2),f
  3549     0290  2A8B               	goto	u429_27
  3550     0291  2A92               	nop2
  3551     0292                     i1l3169:
  3552                           
  3553                           ;Proyecto_2.c: 167:                 PWM_duty(1,map(EEPROM_Read(0x01),0,255,160,650));
  3554     0292  1683               	bsf	3,5	;RP0=1, select bank1
  3555     0293  1303               	bcf	3,6	;RP1=0, select bank1
  3556     0294  01A2               	clrf	map@x0^(0+128)
  3557     0295  30FF               	movlw	255
  3558     0296  00A3               	movwf	map@x1^(0+128)
  3559     0297  30A0               	movlw	160
  3560     0298  00A4               	movwf	map@y0^(0+128)
  3561     0299  3000               	movlw	0
  3562     029A  00A5               	movwf	(map@y0^(0+128)+1)
  3563     029B  308A               	movlw	138
  3564     029C  00A6               	movwf	map@y1^(0+128)
  3565     029D  3002               	movlw	2
  3566     029E  00A7               	movwf	(map@y1^(0+128)+1)
  3567     029F  3001               	movlw	1
  3568     02A0  120A  158A  20F0  120A  118A  	fcall	_EEPROM_Read
  3569     02A5  120A  158A  2182  120A  118A  	fcall	_map
  3570     02AA  1683               	bsf	3,5	;RP0=1, select bank1
  3571     02AB  1303               	bcf	3,6	;RP1=0, select bank1
  3572     02AC  0823               	movf	(?_map+1)^(0+128),w
  3573     02AD  00AA               	movwf	(PWM_duty@duty+1)^(0+128)
  3574     02AE  0822               	movf	?_map^(0+128),w
  3575     02AF  00A9               	movwf	PWM_duty@duty^(0+128)
  3576     02B0  3001               	movlw	1
  3577     02B1  160A  118A  2650  120A  118A  	fcall	_PWM_duty
  3578     02B6                     i1l3171:
  3579                           
  3580                           ;Proyecto_2.c: 168:                 PWM_Mux_Channel_Select(1);
  3581     02B6  3001               	movlw	1
  3582     02B7  00F0               	movwf	PWM_Mux_Channel_Select@channel
  3583     02B8  3000               	movlw	0
  3584     02B9  00F1               	movwf	PWM_Mux_Channel_Select@channel+1
  3585     02BA  160A  118A  2507  120A  118A  	fcall	_PWM_Mux_Channel_Select
  3586     02BF                     i1l3173:
  3587                           
  3588                           ;Proyecto_2.c: 169:                 _delay((unsigned long)((350)*(4000000/4000.0)));
  3589     02BF  3002               	movlw	2
  3590     02C0  1683               	bsf	3,5	;RP0=1, select bank1
  3591     02C1  1303               	bcf	3,6	;RP1=0, select bank1
  3592     02C2  00B0               	movwf	(??_isr^(0+128)+2)
  3593     02C3  30C7               	movlw	199
  3594     02C4  00AF               	movwf	(??_isr^(0+128)+1)
  3595     02C5  3087               	movlw	135
  3596     02C6  00AE               	movwf	??_isr^(0+128)
  3597     02C7                     u430_27:
  3598     02C7  0BAE               	decfsz	??_isr^(0+128),f
  3599     02C8  2AC7               	goto	u430_27
  3600     02C9  0BAF               	decfsz	(??_isr^(0+128)+1),f
  3601     02CA  2AC7               	goto	u430_27
  3602     02CB  0BB0               	decfsz	(??_isr^(0+128)+2),f
  3603     02CC  2AC7               	goto	u430_27
  3604     02CD  2ACE               	nop2
  3605     02CE                     i1l3175:
  3606                           
  3607                           ;Proyecto_2.c: 170:                 PWM_duty(1,map(EEPROM_Read(0x02),0,255,160,650));
  3608     02CE  1683               	bsf	3,5	;RP0=1, select bank1
  3609     02CF  1303               	bcf	3,6	;RP1=0, select bank1
  3610     02D0  01A2               	clrf	map@x0^(0+128)
  3611     02D1  30FF               	movlw	255
  3612     02D2  00A3               	movwf	map@x1^(0+128)
  3613     02D3  30A0               	movlw	160
  3614     02D4  00A4               	movwf	map@y0^(0+128)
  3615     02D5  3000               	movlw	0
  3616     02D6  00A5               	movwf	(map@y0^(0+128)+1)
  3617     02D7  308A               	movlw	138
  3618     02D8  00A6               	movwf	map@y1^(0+128)
  3619     02D9  3002               	movlw	2
  3620     02DA  00A7               	movwf	(map@y1^(0+128)+1)
  3621     02DB  3002               	movlw	2
  3622     02DC  120A  158A  20F0  120A  118A  	fcall	_EEPROM_Read
  3623     02E1  120A  158A  2182  120A  118A  	fcall	_map
  3624     02E6  1683               	bsf	3,5	;RP0=1, select bank1
  3625     02E7  1303               	bcf	3,6	;RP1=0, select bank1
  3626     02E8  0823               	movf	(?_map+1)^(0+128),w
  3627     02E9  00AA               	movwf	(PWM_duty@duty+1)^(0+128)
  3628     02EA  0822               	movf	?_map^(0+128),w
  3629     02EB  00A9               	movwf	PWM_duty@duty^(0+128)
  3630     02EC  3001               	movlw	1
  3631     02ED  160A  118A  2650  120A  118A  	fcall	_PWM_duty
  3632     02F2                     i1l3177:
  3633                           
  3634                           ;Proyecto_2.c: 171:                 PWM_Mux_Channel_Select(2);
  3635     02F2  3002               	movlw	2
  3636     02F3  00F0               	movwf	PWM_Mux_Channel_Select@channel
  3637     02F4  3000               	movlw	0
  3638     02F5  00F1               	movwf	PWM_Mux_Channel_Select@channel+1
  3639     02F6  160A  118A  2507  120A  118A  	fcall	_PWM_Mux_Channel_Select
  3640     02FB                     i1l3179:
  3641                           
  3642                           ;Proyecto_2.c: 172:                 _delay((unsigned long)((350)*(4000000/4000.0)));
  3643     02FB  3002               	movlw	2
  3644     02FC  1683               	bsf	3,5	;RP0=1, select bank1
  3645     02FD  1303               	bcf	3,6	;RP1=0, select bank1
  3646     02FE  00B0               	movwf	(??_isr^(0+128)+2)
  3647     02FF  30C7               	movlw	199
  3648     0300  00AF               	movwf	(??_isr^(0+128)+1)
  3649     0301  3087               	movlw	135
  3650     0302  00AE               	movwf	??_isr^(0+128)
  3651     0303                     u431_27:
  3652     0303  0BAE               	decfsz	??_isr^(0+128),f
  3653     0304  2B03               	goto	u431_27
  3654     0305  0BAF               	decfsz	(??_isr^(0+128)+1),f
  3655     0306  2B03               	goto	u431_27
  3656     0307  0BB0               	decfsz	(??_isr^(0+128)+2),f
  3657     0308  2B03               	goto	u431_27
  3658     0309  2B0A               	nop2
  3659     030A                     i1l3181:
  3660                           
  3661                           ;Proyecto_2.c: 173:                 PWM_duty(1,map(EEPROM_Read(0x03),0,255,160,650));
  3662     030A  1683               	bsf	3,5	;RP0=1, select bank1
  3663     030B  1303               	bcf	3,6	;RP1=0, select bank1
  3664     030C  01A2               	clrf	map@x0^(0+128)
  3665     030D  30FF               	movlw	255
  3666     030E  00A3               	movwf	map@x1^(0+128)
  3667     030F  30A0               	movlw	160
  3668     0310  00A4               	movwf	map@y0^(0+128)
  3669     0311  3000               	movlw	0
  3670     0312  00A5               	movwf	(map@y0^(0+128)+1)
  3671     0313  308A               	movlw	138
  3672     0314  00A6               	movwf	map@y1^(0+128)
  3673     0315  3002               	movlw	2
  3674     0316  00A7               	movwf	(map@y1^(0+128)+1)
  3675     0317  3003               	movlw	3
  3676     0318  120A  158A  20F0  120A  118A  	fcall	_EEPROM_Read
  3677     031D  120A  158A  2182  120A  118A  	fcall	_map
  3678     0322  1683               	bsf	3,5	;RP0=1, select bank1
  3679     0323  1303               	bcf	3,6	;RP1=0, select bank1
  3680     0324  0823               	movf	(?_map+1)^(0+128),w
  3681     0325  00AA               	movwf	(PWM_duty@duty+1)^(0+128)
  3682     0326  0822               	movf	?_map^(0+128),w
  3683     0327  00A9               	movwf	PWM_duty@duty^(0+128)
  3684     0328  3001               	movlw	1
  3685     0329  160A  118A  2650  120A  118A  	fcall	_PWM_duty
  3686     032E                     i1l3183:
  3687                           
  3688                           ;Proyecto_2.c: 174:                 PWM_Mux_Channel_Select(3);
  3689     032E  3003               	movlw	3
  3690     032F  00F0               	movwf	PWM_Mux_Channel_Select@channel
  3691     0330  3000               	movlw	0
  3692     0331  00F1               	movwf	PWM_Mux_Channel_Select@channel+1
  3693     0332  160A  118A  2507  120A  118A  	fcall	_PWM_Mux_Channel_Select
  3694     0337                     i1l3185:
  3695                           
  3696                           ;Proyecto_2.c: 175:                 _delay((unsigned long)((350)*(4000000/4000.0)));
  3697     0337  3002               	movlw	2
  3698     0338  1683               	bsf	3,5	;RP0=1, select bank1
  3699     0339  1303               	bcf	3,6	;RP1=0, select bank1
  3700     033A  00B0               	movwf	(??_isr^(0+128)+2)
  3701     033B  30C7               	movlw	199
  3702     033C  00AF               	movwf	(??_isr^(0+128)+1)
  3703     033D  3087               	movlw	135
  3704     033E  00AE               	movwf	??_isr^(0+128)
  3705     033F                     u432_27:
  3706     033F  0BAE               	decfsz	??_isr^(0+128),f
  3707     0340  2B3F               	goto	u432_27
  3708     0341  0BAF               	decfsz	(??_isr^(0+128)+1),f
  3709     0342  2B3F               	goto	u432_27
  3710     0343  0BB0               	decfsz	(??_isr^(0+128)+2),f
  3711     0344  2B3F               	goto	u432_27
  3712     0345  2B46               	nop2
  3713     0346                     i1l3187:
  3714                           
  3715                           ;Proyecto_2.c: 176:                 Flag_2 = 1;
  3716     0346  1683               	bsf	3,5	;RP0=1, select bank3
  3717     0347  1703               	bsf	3,6	;RP1=1, select bank3
  3718     0348  01E8               	clrf	_Flag_2^(0+384)
  3719     0349  0AE8               	incf	_Flag_2^(0+384),f
  3720     034A                     i1l3189:
  3721                           
  3722                           ;Proyecto_2.c: 177:                 RBIF = 0;
  3723     034A  100B               	bcf	11,0	;volatile
  3724     034B  2CF5               	goto	i1l148
  3725     034C                     i1l135:	
  3726                           ;Proyecto_2.c: 184:     else if (PORTBbits.RB6 == 1)
  3727                           
  3728     034C  1F06               	btfss	6,6	;volatile
  3729     034D  2B4F               	goto	u419_21
  3730     034E  2B50               	goto	u419_20
  3731     034F                     u419_21:
  3732     034F  2CF5               	goto	i1l148
  3733     0350                     u419_20:
  3734     0350                     i1l3191:
  3735                           
  3736                           ;Proyecto_2.c: 185:     {;Proyecto_2.c: 186:     if (Flag_3 == 1)
  3737     0350  1683               	bsf	3,5	;RP0=1, select bank3
  3738     0351  1703               	bsf	3,6	;RP1=1, select bank3
  3739     0352  0367               	decf	_Flag_3^(0+384),w
  3740     0353  1D03               	btfss	3,2
  3741     0354  2B56               	goto	u420_21
  3742     0355  2B57               	goto	u420_20
  3743     0356                     u420_21:
  3744     0356  2B63               	goto	i1l3197
  3745     0357                     u420_20:
  3746     0357                     i1l3193:
  3747                           
  3748                           ;Proyecto_2.c: 187:     {;Proyecto_2.c: 188:         Enviar_Texto("Menu UART \na. Recibi
      +                          r comandos, b. Salir modo Uart\n");
  3749     0357  304B               	movlw	(low ((STR_6-__stringbase)| (0+32768)))& (0+255)
  3750     0358  00F0               	movwf	Enviar_Texto@text
  3751     0359  3080               	movlw	128
  3752     035A  00F1               	movwf	Enviar_Texto@text+1
  3753     035B  160A  118A  2453  120A  118A  	fcall	_Enviar_Texto
  3754     0360                     i1l3195:
  3755                           
  3756                           ;Proyecto_2.c: 189:         Flag_3 = 0;
  3757     0360  1683               	bsf	3,5	;RP0=1, select bank3
  3758     0361  1703               	bsf	3,6	;RP1=1, select bank3
  3759     0362  01E7               	clrf	_Flag_3^(0+384)
  3760     0363                     i1l3197:
  3761                           
  3762                           ;Proyecto_2.c: 192:     Recibir_Texto(Selector,1);
  3763     0363  3001               	movlw	1
  3764     0364  00F0               	movwf	Recibir_Texto@maxLength
  3765     0365  3000               	movlw	0
  3766     0366  00F1               	movwf	Recibir_Texto@maxLength+1
  3767     0367  30E6               	movlw	(low (_Selector| (0+256)))& (0+255)
  3768     0368  160A  118A  24D1  120A  118A  	fcall	_Recibir_Texto
  3769     036D                     i1l3199:
  3770                           
  3771                           ;Proyecto_2.c: 194:             if (Selector[0] == 0x61)
  3772     036D  3061               	movlw	97
  3773     036E  1683               	bsf	3,5	;RP0=1, select bank3
  3774     036F  1703               	bsf	3,6	;RP1=1, select bank3
  3775     0370  0666               	xorwf	_Selector^(0+384),w
  3776     0371  1D03               	btfss	3,2
  3777     0372  2B74               	goto	u421_21
  3778     0373  2B75               	goto	u421_20
  3779     0374                     u421_21:
  3780     0374  2CD0               	goto	i1l3245
  3781     0375                     u421_20:
  3782     0375                     i1l3201:
  3783                           
  3784                           ;Proyecto_2.c: 195:             {;Proyecto_2.c: 196:                 int numbers[4];;Pro
      +                          yecto_2.c: 197:                 Enviar_Texto("Ingrese Angulos: \n");
  3785     0375  3094               	movlw	(low ((STR_7-__stringbase)| (0+32768)))& (0+255)
  3786     0376  00F0               	movwf	Enviar_Texto@text
  3787     0377  3080               	movlw	128
  3788     0378  00F1               	movwf	Enviar_Texto@text+1
  3789     0379  160A  118A  2453  120A  118A  	fcall	_Enviar_Texto
  3790     037E                     i1l3203:
  3791                           
  3792                           ;Proyecto_2.c: 198:                 for(int i = 0; i < 4; i++)
  3793     037E  1683               	bsf	3,5	;RP0=1, select bank3
  3794     037F  1703               	bsf	3,6	;RP1=1, select bank3
  3795     0380  01D6               	clrf	isr@i^(0+384)
  3796     0381  01D7               	clrf	(isr@i+1)^(0+384)
  3797     0382                     i1l3209:
  3798                           
  3799                           ;Proyecto_2.c: 199:                 {;Proyecto_2.c: 200:                     char buffer
      +                          [50];;Proyecto_2.c: 201:                     Recibir_Texto(buffer, 3);
  3800     0382  3003               	movlw	3
  3801     0383  00F0               	movwf	Recibir_Texto@maxLength
  3802     0384  3000               	movlw	0
  3803     0385  00F1               	movwf	Recibir_Texto@maxLength+1
  3804     0386  3090               	movlw	(low (isr@buffer| (0+256)))& (0+255)
  3805     0387  160A  118A  24D1  120A  118A  	fcall	_Recibir_Texto
  3806                           
  3807                           ;Proyecto_2.c: 203:                     numbers[i] = string_to_int(buffer);
  3808     038C  3090               	movlw	(low (isr@buffer| (0+256)))& (0+255)
  3809     038D  160A  118A  23BC  120A  118A  	fcall	_string_to_int
  3810     0392  1683               	bsf	3,5	;RP0=1, select bank3
  3811     0393  1703               	bsf	3,6	;RP1=1, select bank3
  3812     0394  0856               	movf	isr@i^(0+384),w
  3813     0395  1683               	bsf	3,5	;RP0=1, select bank1
  3814     0396  1303               	bcf	3,6	;RP1=0, select bank1
  3815     0397  00AE               	movwf	??_isr^(0+128)
  3816     0398  072E               	addwf	??_isr^(0+128),w
  3817     0399  3ECE               	addlw	(low (isr@numbers| (0+256)))& (0+255)
  3818     039A  0084               	movwf	4
  3819     039B  1283               	bcf	3,5	;RP0=0, select bank0
  3820     039C  1303               	bcf	3,6	;RP1=0, select bank0
  3821     039D  0820               	movf	?_string_to_int,w
  3822     039E  1783               	bsf	3,7	;select IRP bank3
  3823     039F  0080               	movwf	0
  3824     03A0  0A84               	incf	4,f
  3825     03A1  0821               	movf	?_string_to_int+1,w
  3826     03A2  0080               	movwf	0
  3827                           
  3828                           ;Proyecto_2.c: 205:                     char numStr[12];;Proyecto_2.c: 206:             
      +                                  itoa(numStr, numbers[i], 10);
  3829     03A3  1683               	bsf	3,5	;RP0=1, select bank3
  3830     03A4  1703               	bsf	3,6	;RP1=1, select bank3
  3831     03A5  0856               	movf	isr@i^(0+384),w
  3832     03A6  1683               	bsf	3,5	;RP0=1, select bank1
  3833     03A7  1303               	bcf	3,6	;RP1=0, select bank1
  3834     03A8  00AE               	movwf	??_isr^(0+128)
  3835     03A9  072E               	addwf	??_isr^(0+128),w
  3836     03AA  3ECE               	addlw	(low (isr@numbers| (0+256)))& (0+255)
  3837     03AB  0084               	movwf	4
  3838     03AC  0800               	movf	0,w
  3839     03AD  1283               	bcf	3,5	;RP0=0, select bank0
  3840     03AE  1303               	bcf	3,6	;RP1=0, select bank0
  3841     03AF  00A4               	movwf	itoa@val
  3842     03B0  0A84               	incf	4,f
  3843     03B1  0800               	movf	0,w
  3844     03B2  00A5               	movwf	itoa@val+1
  3845     03B3  300A               	movlw	10
  3846     03B4  00A6               	movwf	itoa@base
  3847     03B5  3000               	movlw	0
  3848     03B6  00A7               	movwf	itoa@base+1
  3849     03B7  30C2               	movlw	(low (isr@numStr| (0+256)))& (0+255)
  3850     03B8  160A  118A  240A  120A  118A  	fcall	_itoa
  3851     03BD                     i1l3211:
  3852                           
  3853                           ;Proyecto_2.c: 208:                     Enviar_Texto(numStr);
  3854     03BD  30C2               	movlw	(low (isr@numStr| (0+256)))& (0+255)
  3855     03BE  00F0               	movwf	Enviar_Texto@text
  3856     03BF  3001               	movlw	1
  3857     03C0  00F1               	movwf	Enviar_Texto@text+1
  3858     03C1  160A  118A  2453  120A  118A  	fcall	_Enviar_Texto
  3859     03C6                     i1l3213:
  3860                           
  3861                           ;Proyecto_2.c: 209:                     Enviar_Texto("\n");
  3862     03C6  30A5               	movlw	(low (((STR_7+17)-__stringbase)| (0+32768)))& (0+255)
  3863     03C7  00F0               	movwf	Enviar_Texto@text
  3864     03C8  3080               	movlw	128
  3865     03C9  00F1               	movwf	Enviar_Texto@text+1
  3866     03CA  160A  118A  2453  120A  118A  	fcall	_Enviar_Texto
  3867     03CF                     i1l3215:
  3868                           
  3869                           ;Proyecto_2.c: 210:                 }
  3870     03CF  3001               	movlw	1
  3871     03D0  1683               	bsf	3,5	;RP0=1, select bank3
  3872     03D1  1703               	bsf	3,6	;RP1=1, select bank3
  3873     03D2  07D6               	addwf	isr@i^(0+384),f
  3874     03D3  1803               	skipnc
  3875     03D4  0AD7               	incf	(isr@i+1)^(0+384),f
  3876     03D5  3000               	movlw	0
  3877     03D6  07D7               	addwf	(isr@i+1)^(0+384),f
  3878     03D7                     i1l3217:
  3879     03D7  0857               	movf	(isr@i+1)^(0+384),w
  3880     03D8  3A80               	xorlw	128
  3881     03D9  00FF               	movwf	btemp+1
  3882     03DA  3080               	movlw	128
  3883     03DB  027F               	subwf	btemp+1,w
  3884     03DC  1D03               	skipz
  3885     03DD  2BE0               	goto	u422_25
  3886     03DE  3004               	movlw	4
  3887     03DF  0256               	subwf	isr@i^(0+384),w
  3888     03E0                     u422_25:
  3889     03E0  1C03               	skipc
  3890     03E1  2BE3               	goto	u422_21
  3891     03E2  2BE4               	goto	u422_20
  3892     03E3                     u422_21:
  3893     03E3  2B82               	goto	i1l3209
  3894     03E4                     u422_20:
  3895     03E4                     i1l3219:
  3896                           
  3897                           ;Proyecto_2.c: 212:                 PWM_duty(1,map(numbers[0],0,180,160,650));
  3898     03E4  1683               	bsf	3,5	;RP0=1, select bank1
  3899     03E5  1303               	bcf	3,6	;RP1=0, select bank1
  3900     03E6  01A2               	clrf	map@x0^(0+128)
  3901     03E7  30B4               	movlw	180
  3902     03E8  00A3               	movwf	map@x1^(0+128)
  3903     03E9  30A0               	movlw	160
  3904     03EA  00A4               	movwf	map@y0^(0+128)
  3905     03EB  3000               	movlw	0
  3906     03EC  00A5               	movwf	(map@y0^(0+128)+1)
  3907     03ED  308A               	movlw	138
  3908     03EE  00A6               	movwf	map@y1^(0+128)
  3909     03EF  3002               	movlw	2
  3910     03F0  00A7               	movwf	(map@y1^(0+128)+1)
  3911     03F1  1683               	bsf	3,5	;RP0=1, select bank3
  3912     03F2  1703               	bsf	3,6	;RP1=1, select bank3
  3913     03F3  084E               	movf	isr@numbers^(0+384),w
  3914     03F4  120A  158A  2182  120A  118A  	fcall	_map
  3915     03F9  1683               	bsf	3,5	;RP0=1, select bank1
  3916     03FA  1303               	bcf	3,6	;RP1=0, select bank1
  3917     03FB  0823               	movf	(?_map+1)^(0+128),w
  3918     03FC  00AA               	movwf	(PWM_duty@duty+1)^(0+128)
  3919     03FD  0822               	movf	?_map^(0+128),w
  3920     03FE  00A9               	movwf	PWM_duty@duty^(0+128)
  3921     03FF  3001               	movlw	1
  3922     0400  160A  118A  2650  120A  118A  	fcall	_PWM_duty
  3923     0405                     i1l3221:
  3924                           
  3925                           ;Proyecto_2.c: 213:                 PWM_Mux_Channel_Select(0);
  3926     0405  3000               	movlw	0
  3927     0406  00F0               	movwf	PWM_Mux_Channel_Select@channel
  3928     0407  00F1               	movwf	PWM_Mux_Channel_Select@channel+1
  3929     0408  160A  118A  2507  120A  118A  	fcall	_PWM_Mux_Channel_Select
  3930     040D                     i1l3223:
  3931                           
  3932                           ;Proyecto_2.c: 214:                 _delay((unsigned long)((500)*(4000000/4000.0)));
  3933     040D  3003               	movlw	3
  3934     040E  1683               	bsf	3,5	;RP0=1, select bank1
  3935     040F  1303               	bcf	3,6	;RP1=0, select bank1
  3936     0410  00B0               	movwf	(??_isr^(0+128)+2)
  3937     0411  308A               	movlw	138
  3938     0412  00AF               	movwf	(??_isr^(0+128)+1)
  3939     0413  3055               	movlw	85
  3940     0414  00AE               	movwf	??_isr^(0+128)
  3941     0415                     u433_27:
  3942     0415  0BAE               	decfsz	??_isr^(0+128),f
  3943     0416  2C15               	goto	u433_27
  3944     0417  0BAF               	decfsz	(??_isr^(0+128)+1),f
  3945     0418  2C15               	goto	u433_27
  3946     0419  0BB0               	decfsz	(??_isr^(0+128)+2),f
  3947     041A  2C15               	goto	u433_27
  3948     041B                     i1l3225:
  3949                           
  3950                           ;Proyecto_2.c: 215:                 PWM_duty(1,map(numbers[1],0,180,160,650));
  3951     041B  1683               	bsf	3,5	;RP0=1, select bank1
  3952     041C  1303               	bcf	3,6	;RP1=0, select bank1
  3953     041D  01A2               	clrf	map@x0^(0+128)
  3954     041E  30B4               	movlw	180
  3955     041F  00A3               	movwf	map@x1^(0+128)
  3956     0420  30A0               	movlw	160
  3957     0421  00A4               	movwf	map@y0^(0+128)
  3958     0422  3000               	movlw	0
  3959     0423  00A5               	movwf	(map@y0^(0+128)+1)
  3960     0424  308A               	movlw	138
  3961     0425  00A6               	movwf	map@y1^(0+128)
  3962     0426  3002               	movlw	2
  3963     0427  00A7               	movwf	(map@y1^(0+128)+1)
  3964     0428  1683               	bsf	3,5	;RP0=1, select bank3
  3965     0429  1703               	bsf	3,6	;RP1=1, select bank3
  3966     042A  0850               	movf	(isr@numbers^(0+384)+2),w
  3967     042B  120A  158A  2182  120A  118A  	fcall	_map
  3968     0430  1683               	bsf	3,5	;RP0=1, select bank1
  3969     0431  1303               	bcf	3,6	;RP1=0, select bank1
  3970     0432  0823               	movf	(?_map+1)^(0+128),w
  3971     0433  00AA               	movwf	(PWM_duty@duty+1)^(0+128)
  3972     0434  0822               	movf	?_map^(0+128),w
  3973     0435  00A9               	movwf	PWM_duty@duty^(0+128)
  3974     0436  3001               	movlw	1
  3975     0437  160A  118A  2650  120A  118A  	fcall	_PWM_duty
  3976     043C                     i1l3227:
  3977                           
  3978                           ;Proyecto_2.c: 216:                 PWM_Mux_Channel_Select(1);
  3979     043C  3001               	movlw	1
  3980     043D  00F0               	movwf	PWM_Mux_Channel_Select@channel
  3981     043E  3000               	movlw	0
  3982     043F  00F1               	movwf	PWM_Mux_Channel_Select@channel+1
  3983     0440  160A  118A  2507  120A  118A  	fcall	_PWM_Mux_Channel_Select
  3984                           
  3985                           ;Proyecto_2.c: 217:                 _delay((unsigned long)((500)*(4000000/4000.0)));
  3986     0445  3003               	movlw	3
  3987     0446  1683               	bsf	3,5	;RP0=1, select bank1
  3988     0447  1303               	bcf	3,6	;RP1=0, select bank1
  3989     0448  00B0               	movwf	(??_isr^(0+128)+2)
  3990     0449  308A               	movlw	138
  3991     044A  00AF               	movwf	(??_isr^(0+128)+1)
  3992     044B  3055               	movlw	85
  3993     044C  00AE               	movwf	??_isr^(0+128)
  3994     044D                     u434_27:
  3995     044D  0BAE               	decfsz	??_isr^(0+128),f
  3996     044E  2C4D               	goto	u434_27
  3997     044F  0BAF               	decfsz	(??_isr^(0+128)+1),f
  3998     0450  2C4D               	goto	u434_27
  3999     0451  0BB0               	decfsz	(??_isr^(0+128)+2),f
  4000     0452  2C4D               	goto	u434_27
  4001     0453                     i1l3229:
  4002                           
  4003                           ;Proyecto_2.c: 218:                 PWM_duty(1,map(numbers[2],0,180,160,650));
  4004     0453  1683               	bsf	3,5	;RP0=1, select bank1
  4005     0454  1303               	bcf	3,6	;RP1=0, select bank1
  4006     0455  01A2               	clrf	map@x0^(0+128)
  4007     0456  30B4               	movlw	180
  4008     0457  00A3               	movwf	map@x1^(0+128)
  4009     0458  30A0               	movlw	160
  4010     0459  00A4               	movwf	map@y0^(0+128)
  4011     045A  3000               	movlw	0
  4012     045B  00A5               	movwf	(map@y0^(0+128)+1)
  4013     045C  308A               	movlw	138
  4014     045D  00A6               	movwf	map@y1^(0+128)
  4015     045E  3002               	movlw	2
  4016     045F  00A7               	movwf	(map@y1^(0+128)+1)
  4017     0460  1683               	bsf	3,5	;RP0=1, select bank3
  4018     0461  1703               	bsf	3,6	;RP1=1, select bank3
  4019     0462  0852               	movf	(isr@numbers^(0+384)+4),w
  4020     0463  120A  158A  2182  120A  118A  	fcall	_map
  4021     0468  1683               	bsf	3,5	;RP0=1, select bank1
  4022     0469  1303               	bcf	3,6	;RP1=0, select bank1
  4023     046A  0823               	movf	(?_map+1)^(0+128),w
  4024     046B  00AA               	movwf	(PWM_duty@duty+1)^(0+128)
  4025     046C  0822               	movf	?_map^(0+128),w
  4026     046D  00A9               	movwf	PWM_duty@duty^(0+128)
  4027     046E  3001               	movlw	1
  4028     046F  160A  118A  2650  120A  118A  	fcall	_PWM_duty
  4029     0474                     i1l3231:
  4030                           
  4031                           ;Proyecto_2.c: 219:                 PWM_Mux_Channel_Select(2);
  4032     0474  3002               	movlw	2
  4033     0475  00F0               	movwf	PWM_Mux_Channel_Select@channel
  4034     0476  3000               	movlw	0
  4035     0477  00F1               	movwf	PWM_Mux_Channel_Select@channel+1
  4036     0478  160A  118A  2507  120A  118A  	fcall	_PWM_Mux_Channel_Select
  4037     047D                     i1l3233:
  4038                           
  4039                           ;Proyecto_2.c: 220:                 _delay((unsigned long)((500)*(4000000/4000.0)));
  4040     047D  3003               	movlw	3
  4041     047E  1683               	bsf	3,5	;RP0=1, select bank1
  4042     047F  1303               	bcf	3,6	;RP1=0, select bank1
  4043     0480  00B0               	movwf	(??_isr^(0+128)+2)
  4044     0481  308A               	movlw	138
  4045     0482  00AF               	movwf	(??_isr^(0+128)+1)
  4046     0483  3055               	movlw	85
  4047     0484  00AE               	movwf	??_isr^(0+128)
  4048     0485                     u435_27:
  4049     0485  0BAE               	decfsz	??_isr^(0+128),f
  4050     0486  2C85               	goto	u435_27
  4051     0487  0BAF               	decfsz	(??_isr^(0+128)+1),f
  4052     0488  2C85               	goto	u435_27
  4053     0489  0BB0               	decfsz	(??_isr^(0+128)+2),f
  4054     048A  2C85               	goto	u435_27
  4055     048B                     i1l3235:
  4056                           
  4057                           ;Proyecto_2.c: 221:                 PWM_duty(1,map(numbers[3],0,180,160,650));
  4058     048B  1683               	bsf	3,5	;RP0=1, select bank1
  4059     048C  1303               	bcf	3,6	;RP1=0, select bank1
  4060     048D  01A2               	clrf	map@x0^(0+128)
  4061     048E  30B4               	movlw	180
  4062     048F  00A3               	movwf	map@x1^(0+128)
  4063     0490  30A0               	movlw	160
  4064     0491  00A4               	movwf	map@y0^(0+128)
  4065     0492  3000               	movlw	0
  4066     0493  00A5               	movwf	(map@y0^(0+128)+1)
  4067     0494  308A               	movlw	138
  4068     0495  00A6               	movwf	map@y1^(0+128)
  4069     0496  3002               	movlw	2
  4070     0497  00A7               	movwf	(map@y1^(0+128)+1)
  4071     0498  1683               	bsf	3,5	;RP0=1, select bank3
  4072     0499  1703               	bsf	3,6	;RP1=1, select bank3
  4073     049A  0854               	movf	(isr@numbers^(0+384)+6),w
  4074     049B  120A  158A  2182  120A  118A  	fcall	_map
  4075     04A0  1683               	bsf	3,5	;RP0=1, select bank1
  4076     04A1  1303               	bcf	3,6	;RP1=0, select bank1
  4077     04A2  0823               	movf	(?_map+1)^(0+128),w
  4078     04A3  00AA               	movwf	(PWM_duty@duty+1)^(0+128)
  4079     04A4  0822               	movf	?_map^(0+128),w
  4080     04A5  00A9               	movwf	PWM_duty@duty^(0+128)
  4081     04A6  3001               	movlw	1
  4082     04A7  160A  118A  2650  120A  118A  	fcall	_PWM_duty
  4083                           
  4084                           ;Proyecto_2.c: 222:                 PWM_Mux_Channel_Select(3);
  4085     04AC  3003               	movlw	3
  4086     04AD  00F0               	movwf	PWM_Mux_Channel_Select@channel
  4087     04AE  3000               	movlw	0
  4088     04AF  00F1               	movwf	PWM_Mux_Channel_Select@channel+1
  4089     04B0  160A  118A  2507  120A  118A  	fcall	_PWM_Mux_Channel_Select
  4090     04B5                     i1l3237:
  4091                           
  4092                           ;Proyecto_2.c: 223:                 _delay((unsigned long)((500)*(4000000/4000.0)));
  4093     04B5  3003               	movlw	3
  4094     04B6  1683               	bsf	3,5	;RP0=1, select bank1
  4095     04B7  1303               	bcf	3,6	;RP1=0, select bank1
  4096     04B8  00B0               	movwf	(??_isr^(0+128)+2)
  4097     04B9  308A               	movlw	138
  4098     04BA  00AF               	movwf	(??_isr^(0+128)+1)
  4099     04BB  3055               	movlw	85
  4100     04BC  00AE               	movwf	??_isr^(0+128)
  4101     04BD                     u436_27:
  4102     04BD  0BAE               	decfsz	??_isr^(0+128),f
  4103     04BE  2CBD               	goto	u436_27
  4104     04BF  0BAF               	decfsz	(??_isr^(0+128)+1),f
  4105     04C0  2CBD               	goto	u436_27
  4106     04C1  0BB0               	decfsz	(??_isr^(0+128)+2),f
  4107     04C2  2CBD               	goto	u436_27
  4108     04C3                     i1l3239:
  4109                           
  4110                           ;Proyecto_2.c: 225:                 Enviar_Texto("Listo\n");
  4111     04C3  30D9               	movlw	(low ((STR_9-__stringbase)| (0+32768)))& (0+255)
  4112     04C4  00F0               	movwf	Enviar_Texto@text
  4113     04C5  3080               	movlw	128
  4114     04C6  00F1               	movwf	Enviar_Texto@text+1
  4115     04C7  160A  118A  2453  120A  118A  	fcall	_Enviar_Texto
  4116     04CC                     i1l3241:
  4117                           
  4118                           ;Proyecto_2.c: 226:                 RCIF = 0;
  4119     04CC  1283               	bcf	3,5	;RP0=0, select bank0
  4120     04CD  1303               	bcf	3,6	;RP1=0, select bank0
  4121     04CE  128C               	bcf	12,5	;volatile
  4122     04CF  29D2               	goto	i1l3125
  4123     04D0                     i1l3245:
  4124     04D0  3062               	movlw	98
  4125     04D1  0666               	xorwf	_Selector^(0+384),w
  4126     04D2  1D03               	btfss	3,2
  4127     04D3  2CD5               	goto	u423_21
  4128     04D4  2CD6               	goto	u423_20
  4129     04D5                     u423_21:
  4130     04D5  2CF5               	goto	i1l148
  4131     04D6                     u423_20:
  4132     04D6                     i1l3247:
  4133                           
  4134                           ;Proyecto_2.c: 231:             {;Proyecto_2.c: 232:             Flag_1 = (Flag_1 + 1) %
      +                           4;
  4135     04D6  0864               	movf	_Flag_1^(0+384),w
  4136     04D7  3E01               	addlw	1
  4137     04D8  3903               	andlw	3
  4138     04D9  00E4               	movwf	_Flag_1^(0+384)
  4139                           
  4140                           ;Proyecto_2.c: 233:             PORTB = (PORTB & 0x0F) | (1 << (Flag_1 + 4));
  4141     04DA  3001               	movlw	1
  4142     04DB  1683               	bsf	3,5	;RP0=1, select bank1
  4143     04DC  1303               	bcf	3,6	;RP1=0, select bank1
  4144     04DD  00AE               	movwf	??_isr^(0+128)
  4145     04DE  1683               	bsf	3,5	;RP0=1, select bank3
  4146     04DF  1703               	bsf	3,6	;RP1=1, select bank3
  4147     04E0  0864               	movf	_Flag_1^(0+384),w
  4148     04E1  3E04               	addlw	4
  4149     04E2  3E01               	addlw	1
  4150     04E3  1683               	bsf	3,5	;RP0=1, select bank1
  4151     04E4  1303               	bcf	3,6	;RP1=0, select bank1
  4152     04E5  2CE8               	goto	u424_24
  4153     04E6                     u424_25:
  4154     04E6  1003               	clrc
  4155     04E7  0DAE               	rlf	??_isr^(0+128),f
  4156     04E8                     u424_24:
  4157     04E8  3EFF               	addlw	-1
  4158     04E9  1D03               	skipz
  4159     04EA  2CE6               	goto	u424_25
  4160     04EB  1283               	bcf	3,5	;RP0=0, select bank0
  4161     04EC  1303               	bcf	3,6	;RP1=0, select bank0
  4162     04ED  0806               	movf	6,w	;volatile
  4163     04EE  390F               	andlw	15
  4164     04EF  1683               	bsf	3,5	;RP0=1, select bank1
  4165     04F0  1303               	bcf	3,6	;RP1=0, select bank1
  4166     04F1  042E               	iorwf	??_isr^(0+128),w
  4167     04F2  1283               	bcf	3,5	;RP0=0, select bank0
  4168     04F3  1303               	bcf	3,6	;RP1=0, select bank0
  4169     04F4  0086               	movwf	6	;volatile
  4170     04F5                     i1l148:
  4171     04F5  1683               	bsf	3,5	;RP0=1, select bank1
  4172     04F6  1303               	bcf	3,6	;RP1=0, select bank1
  4173     04F7  0834               	movf	(??_isr+6)^(0+128),w
  4174     04F8  00FF               	movwf	btemp+1
  4175     04F9  0833               	movf	(??_isr+5)^(0+128),w
  4176     04FA  008A               	movwf	10
  4177     04FB  0832               	movf	(??_isr+4)^(0+128),w
  4178     04FC  0084               	movwf	4
  4179     04FD  0E31               	swapf	(??_isr+3)^(0+128),w
  4180     04FE  0083               	movwf	3
  4181     04FF  0EFE               	swapf	btemp,f
  4182     0500  0E7E               	swapf	btemp,w
  4183     0501  0009               	retfie
  4184     0502                     __end_of_isr:
  4185                           
  4186                           	psect	intentry
  4187     0004                     __pintentry:	
  4188                           ;incstack = 0
  4189                           ; Regs used in _isr: [wreg-fsr0h+status,2+status,0+btemp+1+pclath+cstack]
  4190                           
  4191     0004                     interrupt_function:
  4192     007E                     saved_w	set	btemp
  4193     0004  00FE               	movwf	btemp
  4194     0005  0E03               	swapf	3,w
  4195     0006  1683               	bsf	3,5	;RP0=1, select bank1
  4196     0007  1303               	bcf	3,6	;RP1=0, select bank1
  4197     0008  00B1               	movwf	(??_isr+3)^(0+128)
  4198     0009  0804               	movf	4,w
  4199     000A  00B2               	movwf	(??_isr+4)^(0+128)
  4200     000B  080A               	movf	10,w
  4201     000C  00B3               	movwf	(??_isr+5)^(0+128)
  4202     000D  087F               	movf	btemp+1,w
  4203     000E  00B4               	movwf	(??_isr+6)^(0+128)
  4204     000F  120A  118A  2840   	ljmp	_isr
  4205                           
  4206                           	psect	text13
  4207     13BC                     __ptext13:	
  4208 ;; *************** function _string_to_int *****************
  4209 ;; Defined at:
  4210 ;;		line 65 in file "EUSART.c"
  4211 ;; Parameters:    Size  Location     Type
  4212 ;;  str             1    wreg     PTR unsigned char 
  4213 ;;		 -> isr@buffer(50), 
  4214 ;; Auto vars:     Size  Location     Type
  4215 ;;  str             1    2[BANK0 ] PTR unsigned char 
  4216 ;;		 -> isr@buffer(50), 
  4217 ;; Return value:  Size  Location     Type
  4218 ;;                  2    0[BANK0 ] int 
  4219 ;; Registers used:
  4220 ;;		wreg, fsr0l, fsr0h, status,2, status,0, pclath, cstack
  4221 ;; Tracked objects:
  4222 ;;		On entry : 0/0
  4223 ;;		On exit  : 0/0
  4224 ;;		Unchanged: 0/0
  4225 ;; Data sizes:     COMMON   BANK0   BANK1   BANK3   BANK2
  4226 ;;      Params:         0       2       0       0       0
  4227 ;;      Locals:         0       1       0       0       0
  4228 ;;      Temps:          0       0       0       0       0
  4229 ;;      Totals:         0       3       0       0       0
  4230 ;;Total ram usage:        3 bytes
  4231 ;; Hardware stack levels used: 1
  4232 ;; Hardware stack levels required when called: 2
  4233 ;; This function calls:
  4234 ;;		_atoi
  4235 ;; This function is called by:
  4236 ;;		_isr
  4237 ;; This function uses a non-reentrant model
  4238 ;;
  4239                           
  4240     13BC                     _string_to_int:	
  4241                           ;psect for function _string_to_int
  4242                           
  4243                           
  4244                           ;incstack = 0
  4245                           ; Regs used in _string_to_int: [wreg-fsr0h+status,2+status,0+pclath+cstack]
  4246                           ;string_to_int@str stored from wreg
  4247     13BC  1283               	bcf	3,5	;RP0=0, select bank0
  4248     13BD  1303               	bcf	3,6	;RP1=0, select bank0
  4249     13BE  00A2               	movwf	string_to_int@str
  4250     13BF                     i1l2911:
  4251                           
  4252                           ;EUSART.c: 66:     return atoi(str);
  4253     13BF  0822               	movf	string_to_int@str,w
  4254     13C0  160A  118A  2785  160A  118A  	fcall	_atoi
  4255     13C5  0877               	movf	?_atoi+1,w
  4256     13C6  1283               	bcf	3,5	;RP0=0, select bank0
  4257     13C7  1303               	bcf	3,6	;RP1=0, select bank0
  4258     13C8  00A1               	movwf	?_string_to_int+1
  4259     13C9  0876               	movf	?_atoi,w
  4260     13CA  00A0               	movwf	?_string_to_int
  4261     13CB                     i1l256:
  4262     13CB  0008               	return
  4263     13CC                     __end_of_string_to_int:
  4264                           
  4265                           	psect	text14
  4266     1785                     __ptext14:	
  4267 ;; *************** function _atoi *****************
  4268 ;; Defined at:
  4269 ;;		line 5 in file "C:\Program Files\Microchip\xc8\v2.40\pic\sources\c90\common\atoi.c"
  4270 ;; Parameters:    Size  Location     Type
  4271 ;;  s               1    wreg     PTR const unsigned char 
  4272 ;;		 -> isr@buffer(50), 
  4273 ;; Auto vars:     Size  Location     Type
  4274 ;;  s               1   13[COMMON] PTR const unsigned char 
  4275 ;;		 -> isr@buffer(50), 
  4276 ;;  a               2   11[COMMON] int 
  4277 ;;  sign            1   10[COMMON] unsigned char 
  4278 ;; Return value:  Size  Location     Type
  4279 ;;                  2    6[COMMON] int 
  4280 ;; Registers used:
  4281 ;;		wreg, fsr0l, fsr0h, status,2, status,0, pclath, cstack
  4282 ;; Tracked objects:
  4283 ;;		On entry : 0/0
  4284 ;;		On exit  : 0/0
  4285 ;;		Unchanged: 0/0
  4286 ;; Data sizes:     COMMON   BANK0   BANK1   BANK3   BANK2
  4287 ;;      Params:         2       0       0       0       0
  4288 ;;      Locals:         4       0       0       0       0
  4289 ;;      Temps:          2       0       0       0       0
  4290 ;;      Totals:         8       0       0       0       0
  4291 ;;Total ram usage:        8 bytes
  4292 ;; Hardware stack levels used: 1
  4293 ;; Hardware stack levels required when called: 1
  4294 ;; This function calls:
  4295 ;;		___wmul
  4296 ;;		_isdigit
  4297 ;; This function is called by:
  4298 ;;		_string_to_int
  4299 ;; This function uses a non-reentrant model
  4300 ;;
  4301                           
  4302     1785                     _atoi:	
  4303                           ;psect for function _atoi
  4304                           
  4305                           
  4306                           ;incstack = 0
  4307                           ; Regs used in _atoi: [wreg-fsr0h+status,2+status,0+pclath+cstack]
  4308                           ;atoi@s stored from wreg
  4309     1785  00FD               	movwf	atoi@s
  4310     1786                     i1l2221:
  4311     1786  2F8B               	goto	i1l2225
  4312     1787                     i1l2223:
  4313     1787  3001               	movlw	1
  4314     1788  00F8               	movwf	??_atoi
  4315     1789  0878               	movf	??_atoi,w
  4316     178A  07FD               	addwf	atoi@s,f
  4317     178B                     i1l2225:
  4318     178B  087D               	movf	atoi@s,w
  4319     178C  0084               	movwf	4
  4320     178D  3020               	movlw	32
  4321     178E  1783               	bsf	3,7	;select IRP bank2
  4322     178F  0600               	xorwf	0,w
  4323     1790  1903               	btfsc	3,2
  4324     1791  2F93               	goto	u235_21
  4325     1792  2F94               	goto	u235_20
  4326     1793                     u235_21:
  4327     1793  2F87               	goto	i1l2223
  4328     1794                     u235_20:
  4329     1794                     i1l2227:
  4330     1794  087D               	movf	atoi@s,w
  4331     1795  0084               	movwf	4
  4332     1796  3009               	movlw	9
  4333     1797  0600               	xorwf	0,w
  4334     1798  1903               	btfsc	3,2
  4335     1799  2F9B               	goto	u236_21
  4336     179A  2F9C               	goto	u236_20
  4337     179B                     u236_21:
  4338     179B  2F87               	goto	i1l2223
  4339     179C                     u236_20:
  4340     179C                     i1l2229:
  4341     179C  01FB               	clrf	atoi@a
  4342     179D  01FC               	clrf	atoi@a+1
  4343     179E  01FA               	clrf	atoi@sign
  4344     179F                     i1l2231:
  4345     179F  087D               	movf	atoi@s,w
  4346     17A0  0084               	movwf	4
  4347     17A1  302D               	movlw	45
  4348     17A2  0600               	xorwf	0,w
  4349     17A3  1D03               	btfss	3,2
  4350     17A4  2FA6               	goto	u237_21
  4351     17A5  2FA7               	goto	u237_20
  4352     17A6                     u237_21:
  4353     17A6  2FB0               	goto	i1l2235
  4354     17A7                     u237_20:
  4355     17A7                     i1l2233:
  4356     17A7  3001               	movlw	1
  4357     17A8  00F8               	movwf	??_atoi
  4358     17A9  0878               	movf	??_atoi,w
  4359     17AA  07FA               	addwf	atoi@sign,f
  4360     17AB  3001               	movlw	1
  4361     17AC  00F8               	movwf	??_atoi
  4362     17AD  0878               	movf	??_atoi,w
  4363     17AE  07FD               	addwf	atoi@s,f
  4364     17AF  2FDE               	goto	i1l2243
  4365     17B0                     i1l2235:
  4366     17B0  087D               	movf	atoi@s,w
  4367     17B1  0084               	movwf	4
  4368     17B2  302B               	movlw	43
  4369     17B3  0600               	xorwf	0,w
  4370     17B4  1D03               	btfss	3,2
  4371     17B5  2FB7               	goto	u238_21
  4372     17B6  2FB8               	goto	u238_20
  4373     17B7                     u238_21:
  4374     17B7  2FDE               	goto	i1l2243
  4375     17B8                     u238_20:
  4376     17B8                     i1l2237:
  4377     17B8  3001               	movlw	1
  4378     17B9  00F8               	movwf	??_atoi
  4379     17BA  0878               	movf	??_atoi,w
  4380     17BB  07FD               	addwf	atoi@s,f
  4381     17BC  2FDE               	goto	i1l2243
  4382     17BD                     i1l2239:
  4383     17BD  087D               	movf	atoi@s,w
  4384     17BE  0084               	movwf	4
  4385     17BF  087C               	movf	atoi@a+1,w
  4386     17C0  00F1               	movwf	___wmul@multiplier+1
  4387     17C1  087B               	movf	atoi@a,w
  4388     17C2  00F0               	movwf	___wmul@multiplier
  4389     17C3  300A               	movlw	10
  4390     17C4  00F2               	movwf	___wmul@multiplicand
  4391     17C5  3000               	movlw	0
  4392     17C6  00F3               	movwf	___wmul@multiplicand+1
  4393     17C7  160A  118A  242E  160A  118A  	fcall	___wmul
  4394     17CC  1783               	bsf	3,7	;select IRP bank2
  4395     17CD  0800               	movf	0,w
  4396     17CE  0770               	addwf	?___wmul,w
  4397     17CF  00F8               	movwf	??_atoi
  4398     17D0  3000               	movlw	0
  4399     17D1  1803               	skipnc
  4400     17D2  3001               	movlw	1
  4401     17D3  0771               	addwf	?___wmul+1,w
  4402     17D4  00F9               	movwf	??_atoi+1
  4403     17D5  0878               	movf	??_atoi,w
  4404     17D6  3ED0               	addlw	208
  4405     17D7  00FB               	movwf	atoi@a
  4406     17D8  0879               	movf	??_atoi+1,w
  4407     17D9  1803               	skipnc
  4408     17DA  3E01               	addlw	1
  4409     17DB  3EFF               	addlw	255
  4410     17DC  00FC               	movwf	atoi@a+1
  4411     17DD  2FB8               	goto	i1l2237
  4412     17DE                     i1l2243:
  4413     17DE  087D               	movf	atoi@s,w
  4414     17DF  0084               	movwf	4
  4415     17E0  0800               	movf	0,w
  4416     17E1  160A  118A  23DD  160A  118A  	fcall	_isdigit
  4417     17E6  1803               	btfsc	3,0
  4418     17E7  2FE9               	goto	u239_21
  4419     17E8  2FEA               	goto	u239_20
  4420     17E9                     u239_21:
  4421     17E9  2FBD               	goto	i1l2239
  4422     17EA                     u239_20:
  4423     17EA                     i1l2245:
  4424     17EA  087A               	movf	atoi@sign,w
  4425     17EB  1903               	btfsc	3,2
  4426     17EC  2FEE               	goto	u240_21
  4427     17ED  2FEF               	goto	u240_20
  4428     17EE                     u240_21:
  4429     17EE  2FFB               	goto	i1l2251
  4430     17EF                     u240_20:
  4431     17EF                     i1l2247:
  4432     17EF  097B               	comf	atoi@a,w
  4433     17F0  00F8               	movwf	??_atoi
  4434     17F1  097C               	comf	atoi@a+1,w
  4435     17F2  00F9               	movwf	??_atoi+1
  4436     17F3  0AF8               	incf	??_atoi,f
  4437     17F4  1903               	skipnz
  4438     17F5  0AF9               	incf	??_atoi+1,f
  4439     17F6  0878               	movf	??_atoi,w
  4440     17F7  00F6               	movwf	?_atoi
  4441     17F8  0879               	movf	??_atoi+1,w
  4442     17F9  00F7               	movwf	?_atoi+1
  4443     17FA  2FFF               	goto	i1l888
  4444     17FB                     i1l2251:
  4445     17FB  087C               	movf	atoi@a+1,w
  4446     17FC  00F7               	movwf	?_atoi+1
  4447     17FD  087B               	movf	atoi@a,w
  4448     17FE  00F6               	movwf	?_atoi
  4449     17FF                     i1l888:
  4450     17FF  0008               	return
  4451     1800                     __end_of_atoi:
  4452                           
  4453                           	psect	text15
  4454     13DD                     __ptext15:	
  4455 ;; *************** function _isdigit *****************
  4456 ;; Defined at:
  4457 ;;		line 8 in file "C:\Program Files\Microchip\xc8\v2.40\pic\sources\c90\common\isdigit.c"
  4458 ;; Parameters:    Size  Location     Type
  4459 ;;  c               1    wreg     unsigned char 
  4460 ;; Auto vars:     Size  Location     Type
  4461 ;;  c               1    1[COMMON] unsigned char 
  4462 ;; Return value:  Size  Location     Type
  4463 ;;		None               void
  4464 ;; Registers used:
  4465 ;;		wreg, status,2, status,0
  4466 ;; Tracked objects:
  4467 ;;		On entry : 0/0
  4468 ;;		On exit  : 0/0
  4469 ;;		Unchanged: 0/0
  4470 ;; Data sizes:     COMMON   BANK0   BANK1   BANK3   BANK2
  4471 ;;      Params:         0       0       0       0       0
  4472 ;;      Locals:         2       0       0       0       0
  4473 ;;      Temps:          0       0       0       0       0
  4474 ;;      Totals:         2       0       0       0       0
  4475 ;;Total ram usage:        2 bytes
  4476 ;; Hardware stack levels used: 1
  4477 ;; This function calls:
  4478 ;;		Nothing
  4479 ;; This function is called by:
  4480 ;;		_atoi
  4481 ;; This function uses a non-reentrant model
  4482 ;;
  4483                           
  4484     13DD                     _isdigit:	
  4485                           ;psect for function _isdigit
  4486                           
  4487                           
  4488                           ;incstack = 0
  4489                           ; Regs used in _isdigit: [wreg+status,2+status,0]
  4490                           ;isdigit@c stored from wreg
  4491     13DD  00F1               	movwf	isdigit@c
  4492     13DE                     i1l2207:
  4493     13DE  01F0               	clrf	_isdigit$1220
  4494     13DF                     i1l2209:
  4495     13DF  303A               	movlw	58
  4496     13E0  0271               	subwf	isdigit@c,w
  4497     13E1  1803               	skipnc
  4498     13E2  2BE4               	goto	u233_21
  4499     13E3  2BE5               	goto	u233_20
  4500     13E4                     u233_21:
  4501     13E4  2BED               	goto	i1l2215
  4502     13E5                     u233_20:
  4503     13E5                     i1l2211:
  4504     13E5  3030               	movlw	48
  4505     13E6  0271               	subwf	isdigit@c,w
  4506     13E7  1C03               	skipc
  4507     13E8  2BEA               	goto	u234_21
  4508     13E9  2BEB               	goto	u234_20
  4509     13EA                     u234_21:
  4510     13EA  2BED               	goto	i1l2215
  4511     13EB                     u234_20:
  4512     13EB                     i1l2213:
  4513     13EB  01F0               	clrf	_isdigit$1220
  4514     13EC  0AF0               	incf	_isdigit$1220,f
  4515     13ED                     i1l2215:
  4516     13ED  0C70               	rrf	_isdigit$1220,w
  4517     13EE                     i1l893:
  4518     13EE  0008               	return
  4519     13EF                     __end_of_isdigit:
  4520                           
  4521                           	psect	text16
  4522     142E                     __ptext16:	
  4523 ;; *************** function ___wmul *****************
  4524 ;; Defined at:
  4525 ;;		line 15 in file "C:\Program Files\Microchip\xc8\v2.40\pic\sources\c90\common\Umul16.c"
  4526 ;; Parameters:    Size  Location     Type
  4527 ;;  multiplier      2    0[COMMON] unsigned int 
  4528 ;;  multiplicand    2    2[COMMON] unsigned int 
  4529 ;; Auto vars:     Size  Location     Type
  4530 ;;  product         2    4[COMMON] unsigned int 
  4531 ;; Return value:  Size  Location     Type
  4532 ;;                  2    0[COMMON] unsigned int 
  4533 ;; Registers used:
  4534 ;;		wreg, status,2, status,0
  4535 ;; Tracked objects:
  4536 ;;		On entry : 0/0
  4537 ;;		On exit  : 0/0
  4538 ;;		Unchanged: 0/0
  4539 ;; Data sizes:     COMMON   BANK0   BANK1   BANK3   BANK2
  4540 ;;      Params:         4       0       0       0       0
  4541 ;;      Locals:         2       0       0       0       0
  4542 ;;      Temps:          0       0       0       0       0
  4543 ;;      Totals:         6       0       0       0       0
  4544 ;;Total ram usage:        6 bytes
  4545 ;; Hardware stack levels used: 1
  4546 ;; This function calls:
  4547 ;;		Nothing
  4548 ;; This function is called by:
  4549 ;;		_atoi
  4550 ;; This function uses a non-reentrant model
  4551 ;;
  4552                           
  4553     142E                     ___wmul:	
  4554                           ;psect for function ___wmul
  4555                           
  4556     142E                     i1l2131:	
  4557                           ;incstack = 0
  4558                           ; Regs used in ___wmul: [wreg+status,2+status,0]
  4559                           
  4560     142E  01F4               	clrf	___wmul@product
  4561     142F  01F5               	clrf	___wmul@product+1
  4562     1430                     i1l2133:
  4563     1430  1C70               	btfss	___wmul@multiplier,0
  4564     1431  2C33               	goto	u213_21
  4565     1432  2C34               	goto	u213_20
  4566     1433                     u213_21:
  4567     1433  2C3A               	goto	i1l425
  4568     1434                     u213_20:
  4569     1434                     i1l2135:
  4570     1434  0872               	movf	___wmul@multiplicand,w
  4571     1435  07F4               	addwf	___wmul@product,f
  4572     1436  1803               	skipnc
  4573     1437  0AF5               	incf	___wmul@product+1,f
  4574     1438  0873               	movf	___wmul@multiplicand+1,w
  4575     1439  07F5               	addwf	___wmul@product+1,f
  4576     143A                     i1l425:
  4577     143A  3001               	movlw	1
  4578     143B                     u214_25:
  4579     143B  1003               	clrc
  4580     143C  0DF2               	rlf	___wmul@multiplicand,f
  4581     143D  0DF3               	rlf	___wmul@multiplicand+1,f
  4582     143E  3EFF               	addlw	-1
  4583     143F  1D03               	skipz
  4584     1440  2C3B               	goto	u214_25
  4585     1441                     i1l2137:
  4586     1441  3001               	movlw	1
  4587     1442                     u215_25:
  4588     1442  1003               	clrc
  4589     1443  0CF1               	rrf	___wmul@multiplier+1,f
  4590     1444  0CF0               	rrf	___wmul@multiplier,f
  4591     1445  3EFF               	addlw	-1
  4592     1446  1D03               	skipz
  4593     1447  2C42               	goto	u215_25
  4594     1448                     i1l2139:
  4595     1448  0870               	movf	___wmul@multiplier,w
  4596     1449  0471               	iorwf	___wmul@multiplier+1,w
  4597     144A  1D03               	btfss	3,2
  4598     144B  2C4D               	goto	u216_21
  4599     144C  2C4E               	goto	u216_20
  4600     144D                     u216_21:
  4601     144D  2C30               	goto	i1l2133
  4602     144E                     u216_20:
  4603     144E                     i1l2141:
  4604     144E  0875               	movf	___wmul@product+1,w
  4605     144F  00F1               	movwf	?___wmul+1
  4606     1450  0874               	movf	___wmul@product,w
  4607     1451  00F0               	movwf	?___wmul
  4608     1452                     i1l427:
  4609     1452  0008               	return
  4610     1453                     __end_of___wmul:
  4611                           
  4612                           	psect	text17
  4613     0982                     __ptext17:	
  4614 ;; *************** function _map *****************
  4615 ;; Defined at:
  4616 ;;		line 3 in file "Map.c"
  4617 ;; Parameters:    Size  Location     Type
  4618 ;;  x               1    wreg     unsigned char 
  4619 ;;  x0              1    2[BANK1 ] unsigned char 
  4620 ;;  x1              1    3[BANK1 ] unsigned char 
  4621 ;;  y0              2    4[BANK1 ] unsigned short 
  4622 ;;  y1              2    6[BANK1 ] unsigned short 
  4623 ;; Auto vars:     Size  Location     Type
  4624 ;;  x               1    8[BANK1 ] unsigned char 
  4625 ;; Return value:  Size  Location     Type
  4626 ;;                  2    2[BANK1 ] unsigned short 
  4627 ;; Registers used:
  4628 ;;		wreg, status,2, status,0, btemp+1, pclath, cstack
  4629 ;; Tracked objects:
  4630 ;;		On entry : 0/0
  4631 ;;		On exit  : 0/0
  4632 ;;		Unchanged: 0/0
  4633 ;; Data sizes:     COMMON   BANK0   BANK1   BANK3   BANK2
  4634 ;;      Params:         0       0       6       0       0
  4635 ;;      Locals:         0       0       1       0       0
  4636 ;;      Temps:          0       0       0       0       0
  4637 ;;      Totals:         0       0       7       0       0
  4638 ;;Total ram usage:        7 bytes
  4639 ;; Hardware stack levels used: 1
  4640 ;; Hardware stack levels required when called: 2
  4641 ;; This function calls:
  4642 ;;		___fladd
  4643 ;;		___fldiv
  4644 ;;		___flmul
  4645 ;;		___fltol
  4646 ;;		___xxtofl
  4647 ;; This function is called by:
  4648 ;;		_isr
  4649 ;; This function uses a non-reentrant model
  4650 ;;
  4651                           
  4652     0982                     _map:	
  4653                           ;psect for function _map
  4654                           
  4655                           
  4656                           ;incstack = 0
  4657                           ; Regs used in _map: [wreg+status,2+status,0+btemp+1+pclath+cstack]
  4658                           ;map@x stored from wreg
  4659     0982  1683               	bsf	3,5	;RP0=1, select bank1
  4660     0983  1303               	bcf	3,6	;RP1=0, select bank1
  4661     0984  00A8               	movwf	map@x^(0+128)
  4662     0985                     i1l2841:
  4663                           
  4664                           ;Map.c: 3: unsigned short map(uint8_t x, uint8_t x0, uint8_t x1,unsigned short y0, unsig
      +                          ned short y1);Map.c: 4: {;Map.c: 5:     return (unsigned short)(y0+((float)(y1-y0)/(x1-x
      +                          0))*(x-x0));
  4665     0985  0824               	movf	map@y0^(0+128),w
  4666     0986  00F0               	movwf	___xxtofl@val
  4667     0987  0825               	movf	(map@y0+1)^(0+128),w
  4668     0988  00F1               	movwf	___xxtofl@val+1
  4669     0989  01F2               	clrf	___xxtofl@val+2
  4670     098A  01F3               	clrf	___xxtofl@val+3
  4671     098B  3000               	movlw	0
  4672     098C  120A  158A  2230  120A  158A  	fcall	___xxtofl
  4673     0991  0873               	movf	?___xxtofl+3,w
  4674     0992  1283               	bcf	3,5	;RP0=0, select bank0
  4675     0993  1303               	bcf	3,6	;RP1=0, select bank0
  4676     0994  00DB               	movwf	___fladd@a+3
  4677     0995  0872               	movf	?___xxtofl+2,w
  4678     0996  00DA               	movwf	___fladd@a+2
  4679     0997  0871               	movf	?___xxtofl+1,w
  4680     0998  00D9               	movwf	___fladd@a+1
  4681     0999  0870               	movf	?___xxtofl,w
  4682     099A  00D8               	movwf	___fladd@a
  4683     099B  1683               	bsf	3,5	;RP0=1, select bank1
  4684     099C  1303               	bcf	3,6	;RP1=0, select bank1
  4685     099D  0824               	movf	map@y0^(0+128),w
  4686     099E  0226               	subwf	map@y1^(0+128),w
  4687     099F  00F0               	movwf	___xxtofl@val
  4688     09A0  0825               	movf	(map@y0+1)^(0+128),w
  4689     09A1  1C03               	skipc
  4690     09A2  0A25               	incf	(map@y0+1)^(0+128),w
  4691     09A3  0227               	subwf	(map@y1+1)^(0+128),w
  4692     09A4  00F1               	movwf	___xxtofl@val+1
  4693     09A5  01F2               	clrf	___xxtofl@val+2
  4694     09A6  01F3               	clrf	___xxtofl@val+3
  4695     09A7  3000               	movlw	0
  4696     09A8  120A  158A  2230  120A  158A  	fcall	___xxtofl
  4697     09AD  0873               	movf	?___xxtofl+3,w
  4698     09AE  1283               	bcf	3,5	;RP0=0, select bank0
  4699     09AF  1303               	bcf	3,6	;RP1=0, select bank0
  4700     09B0  00A7               	movwf	___fldiv@b+3
  4701     09B1  0872               	movf	?___xxtofl+2,w
  4702     09B2  00A6               	movwf	___fldiv@b+2
  4703     09B3  0871               	movf	?___xxtofl+1,w
  4704     09B4  00A5               	movwf	___fldiv@b+1
  4705     09B5  0870               	movf	?___xxtofl,w
  4706     09B6  00A4               	movwf	___fldiv@b
  4707     09B7  1683               	bsf	3,5	;RP0=1, select bank1
  4708     09B8  1303               	bcf	3,6	;RP1=0, select bank1
  4709     09B9  0822               	movf	map@x0^(0+128),w
  4710     09BA  0223               	subwf	map@x1^(0+128),w
  4711     09BB  00F0               	movwf	___xxtofl@val
  4712     09BC  01F1               	clrf	___xxtofl@val+1
  4713     09BD  1C03               	skipc
  4714     09BE  03F1               	decf	___xxtofl@val+1,f
  4715     09BF  01F2               	clrf	___xxtofl@val+2
  4716     09C0  1BF1               	btfsc	___xxtofl@val+1,7
  4717     09C1  03F2               	decf	___xxtofl@val+2,f
  4718     09C2  0872               	movf	___xxtofl@val+2,w
  4719     09C3  00F3               	movwf	___xxtofl@val+3
  4720     09C4  3001               	movlw	1
  4721     09C5  120A  158A  2230  120A  158A  	fcall	___xxtofl
  4722     09CA  0873               	movf	?___xxtofl+3,w
  4723     09CB  1283               	bcf	3,5	;RP0=0, select bank0
  4724     09CC  1303               	bcf	3,6	;RP1=0, select bank0
  4725     09CD  00A3               	movwf	___fldiv@a+3
  4726     09CE  0872               	movf	?___xxtofl+2,w
  4727     09CF  00A2               	movwf	___fldiv@a+2
  4728     09D0  0871               	movf	?___xxtofl+1,w
  4729     09D1  00A1               	movwf	___fldiv@a+1
  4730     09D2  0870               	movf	?___xxtofl,w
  4731     09D3  00A0               	movwf	___fldiv@a
  4732     09D4  120A  158A  22E8  120A  158A  	fcall	___fldiv
  4733     09D9  1283               	bcf	3,5	;RP0=0, select bank0
  4734     09DA  1303               	bcf	3,6	;RP1=0, select bank0
  4735     09DB  0823               	movf	?___fldiv+3,w
  4736     09DC  00C1               	movwf	___flmul@a+3
  4737     09DD  0822               	movf	?___fldiv+2,w
  4738     09DE  00C0               	movwf	___flmul@a+2
  4739     09DF  0821               	movf	?___fldiv+1,w
  4740     09E0  00BF               	movwf	___flmul@a+1
  4741     09E1  0820               	movf	?___fldiv,w
  4742     09E2  00BE               	movwf	___flmul@a
  4743     09E3  1683               	bsf	3,5	;RP0=1, select bank1
  4744     09E4  1303               	bcf	3,6	;RP1=0, select bank1
  4745     09E5  0822               	movf	map@x0^(0+128),w
  4746     09E6  0228               	subwf	map@x^(0+128),w
  4747     09E7  00F0               	movwf	___xxtofl@val
  4748     09E8  01F1               	clrf	___xxtofl@val+1
  4749     09E9  1C03               	skipc
  4750     09EA  03F1               	decf	___xxtofl@val+1,f
  4751     09EB  01F2               	clrf	___xxtofl@val+2
  4752     09EC  1BF1               	btfsc	___xxtofl@val+1,7
  4753     09ED  03F2               	decf	___xxtofl@val+2,f
  4754     09EE  0872               	movf	___xxtofl@val+2,w
  4755     09EF  00F3               	movwf	___xxtofl@val+3
  4756     09F0  3001               	movlw	1
  4757     09F1  120A  158A  2230  120A  158A  	fcall	___xxtofl
  4758     09F6  0873               	movf	?___xxtofl+3,w
  4759     09F7  1283               	bcf	3,5	;RP0=0, select bank0
  4760     09F8  1303               	bcf	3,6	;RP1=0, select bank0
  4761     09F9  00BD               	movwf	___flmul@b+3
  4762     09FA  0872               	movf	?___xxtofl+2,w
  4763     09FB  00BC               	movwf	___flmul@b+2
  4764     09FC  0871               	movf	?___xxtofl+1,w
  4765     09FD  00BB               	movwf	___flmul@b+1
  4766     09FE  0870               	movf	?___xxtofl,w
  4767     09FF  00BA               	movwf	___flmul@b
  4768     0A00  120A  158A  24BB  120A  158A  	fcall	___flmul
  4769     0A05  1283               	bcf	3,5	;RP0=0, select bank0
  4770     0A06  1303               	bcf	3,6	;RP1=0, select bank0
  4771     0A07  083D               	movf	?___flmul+3,w
  4772     0A08  00D7               	movwf	___fladd@b+3
  4773     0A09  083C               	movf	?___flmul+2,w
  4774     0A0A  00D6               	movwf	___fladd@b+2
  4775     0A0B  083B               	movf	?___flmul+1,w
  4776     0A0C  00D5               	movwf	___fladd@b+1
  4777     0A0D  083A               	movf	?___flmul,w
  4778     0A0E  00D4               	movwf	___fladd@b
  4779     0A0F  120A  118A  2502  120A  158A  	fcall	___fladd
  4780     0A14  1283               	bcf	3,5	;RP0=0, select bank0
  4781     0A15  1303               	bcf	3,6	;RP1=0, select bank0
  4782     0A16  0857               	movf	?___fladd+3,w
  4783     0A17  00EB               	movwf	___fltol@f1+3
  4784     0A18  0856               	movf	?___fladd+2,w
  4785     0A19  00EA               	movwf	___fltol@f1+2
  4786     0A1A  0855               	movf	?___fladd+1,w
  4787     0A1B  00E9               	movwf	___fltol@f1+1
  4788     0A1C  0854               	movf	?___fladd,w
  4789     0A1D  00E8               	movwf	___fltol@f1
  4790     0A1E  120A  118A  275A  120A  158A  	fcall	___fltol
  4791     0A23  1283               	bcf	3,5	;RP0=0, select bank0
  4792     0A24  1303               	bcf	3,6	;RP1=0, select bank0
  4793     0A25  0869               	movf	?___fltol+1,w
  4794     0A26  1683               	bsf	3,5	;RP0=1, select bank1
  4795     0A27  1303               	bcf	3,6	;RP1=0, select bank1
  4796     0A28  00A3               	movwf	(?_map+1)^(0+128)
  4797     0A29  1283               	bcf	3,5	;RP0=0, select bank0
  4798     0A2A  1303               	bcf	3,6	;RP1=0, select bank0
  4799     0A2B  0868               	movf	?___fltol,w
  4800     0A2C  1683               	bsf	3,5	;RP0=1, select bank1
  4801     0A2D  1303               	bcf	3,6	;RP1=0, select bank1
  4802     0A2E  00A2               	movwf	?_map^(0+128)
  4803     0A2F                     i1l259:
  4804     0A2F  0008               	return
  4805     0A30                     __end_of_map:
  4806                           
  4807                           	psect	text18
  4808     0A30                     __ptext18:	
  4809 ;; *************** function ___xxtofl *****************
  4810 ;; Defined at:
  4811 ;;		line 10 in file "C:\Program Files\Microchip\xc8\v2.40\pic\sources\c90\common\xxtofl.c"
  4812 ;; Parameters:    Size  Location     Type
  4813 ;;  sign            1    wreg     unsigned char 
  4814 ;;  val             4    0[COMMON] long 
  4815 ;; Auto vars:     Size  Location     Type
  4816 ;;  sign            1    8[COMMON] unsigned char 
  4817 ;;  arg             4   10[COMMON] unsigned long 
  4818 ;;  exp             1    9[COMMON] unsigned char 
  4819 ;; Return value:  Size  Location     Type
  4820 ;;                  4    0[COMMON] unsigned char 
  4821 ;; Registers used:
  4822 ;;		wreg, status,2, status,0
  4823 ;; Tracked objects:
  4824 ;;		On entry : 0/0
  4825 ;;		On exit  : 0/0
  4826 ;;		Unchanged: 0/0
  4827 ;; Data sizes:     COMMON   BANK0   BANK1   BANK3   BANK2
  4828 ;;      Params:         4       0       0       0       0
  4829 ;;      Locals:         6       0       0       0       0
  4830 ;;      Temps:          4       0       0       0       0
  4831 ;;      Totals:        14       0       0       0       0
  4832 ;;Total ram usage:       14 bytes
  4833 ;; Hardware stack levels used: 1
  4834 ;; This function calls:
  4835 ;;		Nothing
  4836 ;; This function is called by:
  4837 ;;		_map
  4838 ;; This function uses a non-reentrant model
  4839 ;;
  4840                           
  4841     0A30                     ___xxtofl:	
  4842                           ;psect for function ___xxtofl
  4843                           
  4844                           
  4845                           ;incstack = 0
  4846                           ; Regs used in ___xxtofl: [wreg+status,2+status,0]
  4847                           ;___xxtofl@sign stored from wreg
  4848     0A30  00F8               	movwf	___xxtofl@sign
  4849     0A31                     i1l2767:
  4850     0A31  0878               	movf	___xxtofl@sign,w
  4851     0A32  1903               	btfsc	3,2
  4852     0A33  2A35               	goto	u363_21
  4853     0A34  2A36               	goto	u363_20
  4854     0A35                     u363_21:
  4855     0A35  2A4A               	goto	i1l2773
  4856     0A36                     u363_20:
  4857     0A36                     i1l2769:
  4858     0A36  1FF3               	btfss	___xxtofl@val+3,7
  4859     0A37  2A39               	goto	u364_21
  4860     0A38  2A3A               	goto	u364_20
  4861     0A39                     u364_21:
  4862     0A39  2A4A               	goto	i1l2773
  4863     0A3A                     u364_20:
  4864     0A3A                     i1l2771:
  4865     0A3A  0970               	comf	___xxtofl@val,w
  4866     0A3B  00FA               	movwf	___xxtofl@arg
  4867     0A3C  0971               	comf	___xxtofl@val+1,w
  4868     0A3D  00FB               	movwf	___xxtofl@arg+1
  4869     0A3E  0972               	comf	___xxtofl@val+2,w
  4870     0A3F  00FC               	movwf	___xxtofl@arg+2
  4871     0A40  0973               	comf	___xxtofl@val+3,w
  4872     0A41  00FD               	movwf	___xxtofl@arg+3
  4873     0A42  0AFA               	incf	___xxtofl@arg,f
  4874     0A43  1903               	skipnz
  4875     0A44  0AFB               	incf	___xxtofl@arg+1,f
  4876     0A45  1903               	skipnz
  4877     0A46  0AFC               	incf	___xxtofl@arg+2,f
  4878     0A47  1903               	skipnz
  4879     0A48  0AFD               	incf	___xxtofl@arg+3,f
  4880     0A49  2A52               	goto	i1l858
  4881     0A4A                     i1l2773:
  4882     0A4A  0873               	movf	___xxtofl@val+3,w
  4883     0A4B  00FD               	movwf	___xxtofl@arg+3
  4884     0A4C  0872               	movf	___xxtofl@val+2,w
  4885     0A4D  00FC               	movwf	___xxtofl@arg+2
  4886     0A4E  0871               	movf	___xxtofl@val+1,w
  4887     0A4F  00FB               	movwf	___xxtofl@arg+1
  4888     0A50  0870               	movf	___xxtofl@val,w
  4889     0A51  00FA               	movwf	___xxtofl@arg
  4890     0A52                     i1l858:
  4891     0A52  0873               	movf	___xxtofl@val+3,w
  4892     0A53  0472               	iorwf	___xxtofl@val+2,w
  4893     0A54  0471               	iorwf	___xxtofl@val+1,w
  4894     0A55  0470               	iorwf	___xxtofl@val,w
  4895     0A56  1D03               	skipz
  4896     0A57  2A59               	goto	u365_21
  4897     0A58  2A5A               	goto	u365_20
  4898     0A59                     u365_21:
  4899     0A59  2A63               	goto	i1l2779
  4900     0A5A                     u365_20:
  4901     0A5A                     i1l2775:
  4902     0A5A  3000               	movlw	0
  4903     0A5B  00F3               	movwf	?___xxtofl+3
  4904     0A5C  3000               	movlw	0
  4905     0A5D  00F2               	movwf	?___xxtofl+2
  4906     0A5E  3000               	movlw	0
  4907     0A5F  00F1               	movwf	?___xxtofl+1
  4908     0A60  3000               	movlw	0
  4909     0A61  00F0               	movwf	?___xxtofl
  4910     0A62  2AE7               	goto	i1l860
  4911     0A63                     i1l2779:
  4912     0A63  3096               	movlw	150
  4913     0A64  00F9               	movwf	___xxtofl@exp
  4914     0A65  2A73               	goto	i1l2783
  4915     0A66                     i1l2781:
  4916     0A66  3001               	movlw	1
  4917     0A67  00F4               	movwf	??___xxtofl
  4918     0A68  0874               	movf	??___xxtofl,w
  4919     0A69  07F9               	addwf	___xxtofl@exp,f
  4920     0A6A  3001               	movlw	1
  4921     0A6B                     u366_25:
  4922     0A6B  1003               	clrc
  4923     0A6C  0CFD               	rrf	___xxtofl@arg+3,f
  4924     0A6D  0CFC               	rrf	___xxtofl@arg+2,f
  4925     0A6E  0CFB               	rrf	___xxtofl@arg+1,f
  4926     0A6F  0CFA               	rrf	___xxtofl@arg,f
  4927     0A70  3EFF               	addlw	-1
  4928     0A71  1D03               	skipz
  4929     0A72  2A6B               	goto	u366_25
  4930     0A73                     i1l2783:
  4931     0A73  30FE               	movlw	254
  4932     0A74  057D               	andwf	___xxtofl@arg+3,w
  4933     0A75  1D03               	btfss	3,2
  4934     0A76  2A78               	goto	u367_21
  4935     0A77  2A79               	goto	u367_20
  4936     0A78                     u367_21:
  4937     0A78  2A66               	goto	i1l2781
  4938     0A79                     u367_20:
  4939     0A79  2A95               	goto	i1l864
  4940     0A7A                     i1l2785:
  4941     0A7A  3001               	movlw	1
  4942     0A7B  00F4               	movwf	??___xxtofl
  4943     0A7C  0874               	movf	??___xxtofl,w
  4944     0A7D  07F9               	addwf	___xxtofl@exp,f
  4945     0A7E                     i1l2787:
  4946     0A7E  3001               	movlw	1
  4947     0A7F  07FA               	addwf	___xxtofl@arg,f
  4948     0A80  3000               	movlw	0
  4949     0A81  1803               	skipnc
  4950     0A82  3001               	movlw	1
  4951     0A83  07FB               	addwf	___xxtofl@arg+1,f
  4952     0A84  3000               	movlw	0
  4953     0A85  1803               	skipnc
  4954     0A86  3001               	movlw	1
  4955     0A87  07FC               	addwf	___xxtofl@arg+2,f
  4956     0A88  3000               	movlw	0
  4957     0A89  1803               	skipnc
  4958     0A8A  3001               	movlw	1
  4959     0A8B  07FD               	addwf	___xxtofl@arg+3,f
  4960     0A8C                     i1l2789:
  4961     0A8C  3001               	movlw	1
  4962     0A8D                     u368_25:
  4963     0A8D  1003               	clrc
  4964     0A8E  0CFD               	rrf	___xxtofl@arg+3,f
  4965     0A8F  0CFC               	rrf	___xxtofl@arg+2,f
  4966     0A90  0CFB               	rrf	___xxtofl@arg+1,f
  4967     0A91  0CFA               	rrf	___xxtofl@arg,f
  4968     0A92  3EFF               	addlw	-1
  4969     0A93  1D03               	skipz
  4970     0A94  2A8D               	goto	u368_25
  4971     0A95                     i1l864:
  4972     0A95  30FF               	movlw	255
  4973     0A96  057D               	andwf	___xxtofl@arg+3,w
  4974     0A97  1D03               	btfss	3,2
  4975     0A98  2A9A               	goto	u369_21
  4976     0A99  2A9B               	goto	u369_20
  4977     0A9A                     u369_21:
  4978     0A9A  2A7A               	goto	i1l2785
  4979     0A9B                     u369_20:
  4980     0A9B  2AA7               	goto	i1l2793
  4981     0A9C                     i1l2791:
  4982     0A9C  3001               	movlw	1
  4983     0A9D  02F9               	subwf	___xxtofl@exp,f
  4984     0A9E  3001               	movlw	1
  4985     0A9F  00F4               	movwf	??___xxtofl
  4986     0AA0                     u370_25:
  4987     0AA0  1003               	clrc
  4988     0AA1  0DFA               	rlf	___xxtofl@arg,f
  4989     0AA2  0DFB               	rlf	___xxtofl@arg+1,f
  4990     0AA3  0DFC               	rlf	___xxtofl@arg+2,f
  4991     0AA4  0DFD               	rlf	___xxtofl@arg+3,f
  4992     0AA5  0BF4               	decfsz	??___xxtofl,f
  4993     0AA6  2AA0               	goto	u370_25
  4994     0AA7                     i1l2793:
  4995     0AA7  1BFC               	btfsc	___xxtofl@arg+2,7
  4996     0AA8  2AAA               	goto	u371_21
  4997     0AA9  2AAB               	goto	u371_20
  4998     0AAA                     u371_21:
  4999     0AAA  2AB1               	goto	i1l871
  5000     0AAB                     u371_20:
  5001     0AAB                     i1l2795:
  5002     0AAB  3002               	movlw	2
  5003     0AAC  0279               	subwf	___xxtofl@exp,w
  5004     0AAD  1803               	skipnc
  5005     0AAE  2AB0               	goto	u372_21
  5006     0AAF  2AB1               	goto	u372_20
  5007     0AB0                     u372_21:
  5008     0AB0  2A9C               	goto	i1l2791
  5009     0AB1                     u372_20:
  5010     0AB1                     i1l871:
  5011     0AB1  1879               	btfsc	___xxtofl@exp,0
  5012     0AB2  2AB4               	goto	u373_21
  5013     0AB3  2AB5               	goto	u373_20
  5014     0AB4                     u373_21:
  5015     0AB4  2ABD               	goto	i1l872
  5016     0AB5                     u373_20:
  5017     0AB5                     i1l2797:
  5018     0AB5  30FF               	movlw	255
  5019     0AB6  05FA               	andwf	___xxtofl@arg,f
  5020     0AB7  30FF               	movlw	255
  5021     0AB8  05FB               	andwf	___xxtofl@arg+1,f
  5022     0AB9  307F               	movlw	127
  5023     0ABA  05FC               	andwf	___xxtofl@arg+2,f
  5024     0ABB  30FF               	movlw	255
  5025     0ABC  05FD               	andwf	___xxtofl@arg+3,f
  5026     0ABD                     i1l872:
  5027     0ABD  1003               	clrc
  5028     0ABE  0CF9               	rrf	___xxtofl@exp,f
  5029     0ABF                     i1l2799:
  5030     0ABF  0879               	movf	___xxtofl@exp,w
  5031     0AC0  00F4               	movwf	??___xxtofl
  5032     0AC1  01F5               	clrf	??___xxtofl+1
  5033     0AC2  01F6               	clrf	??___xxtofl+2
  5034     0AC3  01F7               	clrf	??___xxtofl+3
  5035     0AC4  3018               	movlw	24
  5036     0AC5                     u374_25:
  5037     0AC5  1003               	clrc
  5038     0AC6  0DF4               	rlf	??___xxtofl,f
  5039     0AC7  0DF5               	rlf	??___xxtofl+1,f
  5040     0AC8  0DF6               	rlf	??___xxtofl+2,f
  5041     0AC9  0DF7               	rlf	??___xxtofl+3,f
  5042     0ACA                     u374_20:
  5043     0ACA  3EFF               	addlw	-1
  5044     0ACB  1D03               	skipz
  5045     0ACC  2AC5               	goto	u374_25
  5046     0ACD  0874               	movf	??___xxtofl,w
  5047     0ACE  04FA               	iorwf	___xxtofl@arg,f
  5048     0ACF  0875               	movf	??___xxtofl+1,w
  5049     0AD0  04FB               	iorwf	___xxtofl@arg+1,f
  5050     0AD1  0876               	movf	??___xxtofl+2,w
  5051     0AD2  04FC               	iorwf	___xxtofl@arg+2,f
  5052     0AD3  0877               	movf	??___xxtofl+3,w
  5053     0AD4  04FD               	iorwf	___xxtofl@arg+3,f
  5054     0AD5                     i1l2801:
  5055     0AD5  0878               	movf	___xxtofl@sign,w
  5056     0AD6  1903               	btfsc	3,2
  5057     0AD7  2AD9               	goto	u375_21
  5058     0AD8  2ADA               	goto	u375_20
  5059     0AD9                     u375_21:
  5060     0AD9  2ADF               	goto	i1l2807
  5061     0ADA                     u375_20:
  5062     0ADA                     i1l2803:
  5063     0ADA  1FF3               	btfss	___xxtofl@val+3,7
  5064     0ADB  2ADD               	goto	u376_21
  5065     0ADC  2ADE               	goto	u376_20
  5066     0ADD                     u376_21:
  5067     0ADD  2ADF               	goto	i1l2807
  5068     0ADE                     u376_20:
  5069     0ADE                     i1l2805:
  5070     0ADE  17FD               	bsf	___xxtofl@arg+3,7
  5071     0ADF                     i1l2807:
  5072     0ADF  087D               	movf	___xxtofl@arg+3,w
  5073     0AE0  00F3               	movwf	?___xxtofl+3
  5074     0AE1  087C               	movf	___xxtofl@arg+2,w
  5075     0AE2  00F2               	movwf	?___xxtofl+2
  5076     0AE3  087B               	movf	___xxtofl@arg+1,w
  5077     0AE4  00F1               	movwf	?___xxtofl+1
  5078     0AE5  087A               	movf	___xxtofl@arg,w
  5079     0AE6  00F0               	movwf	?___xxtofl
  5080     0AE7                     i1l860:
  5081     0AE7  0008               	return
  5082     0AE8                     __end_of___xxtofl:
  5083                           
  5084                           	psect	text19
  5085     075A                     __ptext19:	
  5086 ;; *************** function ___fltol *****************
  5087 ;; Defined at:
  5088 ;;		line 43 in file "C:\Program Files\Microchip\xc8\v2.40\pic\sources\c90\common\fltol.c"
  5089 ;; Parameters:    Size  Location     Type
  5090 ;;  f1              4   72[BANK0 ] unsigned char 
  5091 ;; Auto vars:     Size  Location     Type
  5092 ;;  exp1            1    1[BANK1 ] unsigned char 
  5093 ;;  sign1           1    0[BANK1 ] unsigned char 
  5094 ;; Return value:  Size  Location     Type
  5095 ;;                  4   72[BANK0 ] long 
  5096 ;; Registers used:
  5097 ;;		wreg, status,2, status,0
  5098 ;; Tracked objects:
  5099 ;;		On entry : 0/0
  5100 ;;		On exit  : 0/0
  5101 ;;		Unchanged: 0/0
  5102 ;; Data sizes:     COMMON   BANK0   BANK1   BANK3   BANK2
  5103 ;;      Params:         0       4       0       0       0
  5104 ;;      Locals:         0       0       2       0       0
  5105 ;;      Temps:          0       4       0       0       0
  5106 ;;      Totals:         0       8       2       0       0
  5107 ;;Total ram usage:       10 bytes
  5108 ;; Hardware stack levels used: 1
  5109 ;; This function calls:
  5110 ;;		Nothing
  5111 ;; This function is called by:
  5112 ;;		_map
  5113 ;; This function uses a non-reentrant model
  5114 ;;
  5115                           
  5116     075A                     ___fltol:	
  5117                           ;psect for function ___fltol
  5118                           
  5119     075A                     i1l2255:	
  5120                           ;incstack = 0
  5121                           ; Regs used in ___fltol: [wreg+status,2+status,0]
  5122                           
  5123     075A  1003               	clrc
  5124     075B  1283               	bcf	3,5	;RP0=0, select bank0
  5125     075C  1303               	bcf	3,6	;RP1=0, select bank0
  5126     075D  0D6A               	rlf	___fltol@f1+2,w
  5127     075E  0D6B               	rlf	___fltol@f1+3,w
  5128     075F  1683               	bsf	3,5	;RP0=1, select bank1
  5129     0760  1303               	bcf	3,6	;RP1=0, select bank1
  5130     0761  00A1               	movwf	___fltol@exp1^(0+128)
  5131     0762  0821               	movf	___fltol@exp1^(0+128),w
  5132     0763  1D03               	btfss	3,2
  5133     0764  2F66               	goto	u241_21
  5134     0765  2F67               	goto	u241_20
  5135     0766                     u241_21:
  5136     0766  2F72               	goto	i1l2261
  5137     0767                     u241_20:
  5138     0767                     i1l2257:
  5139     0767  3000               	movlw	0
  5140     0768  1283               	bcf	3,5	;RP0=0, select bank0
  5141     0769  1303               	bcf	3,6	;RP1=0, select bank0
  5142     076A  00EB               	movwf	?___fltol+3
  5143     076B  3000               	movlw	0
  5144     076C  00EA               	movwf	?___fltol+2
  5145     076D  3000               	movlw	0
  5146     076E  00E9               	movwf	?___fltol+1
  5147     076F  3000               	movlw	0
  5148     0770  00E8               	movwf	?___fltol
  5149     0771  2FE7               	goto	i1l611
  5150     0772                     i1l2261:
  5151     0772  1283               	bcf	3,5	;RP0=0, select bank0
  5152     0773  1303               	bcf	3,6	;RP1=0, select bank0
  5153     0774  0868               	movf	___fltol@f1,w
  5154     0775  00EC               	movwf	??___fltol
  5155     0776  0869               	movf	___fltol@f1+1,w
  5156     0777  00ED               	movwf	??___fltol+1
  5157     0778  086A               	movf	___fltol@f1+2,w
  5158     0779  00EE               	movwf	??___fltol+2
  5159     077A  086B               	movf	___fltol@f1+3,w
  5160     077B  00EF               	movwf	??___fltol+3
  5161     077C  301F               	movlw	31
  5162     077D                     u242_25:
  5163     077D  1003               	clrc
  5164     077E  0CEF               	rrf	??___fltol+3,f
  5165     077F  0CEE               	rrf	??___fltol+2,f
  5166     0780  0CED               	rrf	??___fltol+1,f
  5167     0781  0CEC               	rrf	??___fltol,f
  5168     0782                     u242_20:
  5169     0782  3EFF               	addlw	-1
  5170     0783  1D03               	skipz
  5171     0784  2F7D               	goto	u242_25
  5172     0785  086C               	movf	??___fltol,w
  5173     0786  1683               	bsf	3,5	;RP0=1, select bank1
  5174     0787  1303               	bcf	3,6	;RP1=0, select bank1
  5175     0788  00A0               	movwf	___fltol@sign1^(0+128)
  5176     0789                     i1l2263:
  5177     0789  1283               	bcf	3,5	;RP0=0, select bank0
  5178     078A  1303               	bcf	3,6	;RP1=0, select bank0
  5179     078B  17EA               	bsf	___fltol@f1+2,7
  5180     078C                     i1l2265:
  5181     078C  30FF               	movlw	255
  5182     078D  05E8               	andwf	___fltol@f1,f
  5183     078E  30FF               	movlw	255
  5184     078F  05E9               	andwf	___fltol@f1+1,f
  5185     0790  30FF               	movlw	255
  5186     0791  05EA               	andwf	___fltol@f1+2,f
  5187     0792  3000               	movlw	0
  5188     0793  05EB               	andwf	___fltol@f1+3,f
  5189     0794                     i1l2267:
  5190     0794  3096               	movlw	150
  5191     0795  1683               	bsf	3,5	;RP0=1, select bank1
  5192     0796  1303               	bcf	3,6	;RP1=0, select bank1
  5193     0797  02A1               	subwf	___fltol@exp1^(0+128),f
  5194     0798                     i1l2269:
  5195     0798  1FA1               	btfss	___fltol@exp1^(0+128),7
  5196     0799  2F9B               	goto	u243_21
  5197     079A  2F9C               	goto	u243_20
  5198     079B                     u243_21:
  5199     079B  2FBA               	goto	i1l2279
  5200     079C                     u243_20:
  5201     079C                     i1l2271:
  5202     079C  0821               	movf	___fltol@exp1^(0+128),w
  5203     079D  3A80               	xorlw	128
  5204     079E  3E97               	addlw	151
  5205     079F  1803               	skipnc
  5206     07A0  2FA2               	goto	u244_21
  5207     07A1  2FA3               	goto	u244_20
  5208     07A2                     u244_21:
  5209     07A2  2FA4               	goto	i1l2277
  5210     07A3                     u244_20:
  5211     07A3  2F67               	goto	i1l2257
  5212     07A4                     i1l2277:
  5213     07A4  3001               	movlw	1
  5214     07A5                     u245_25:
  5215     07A5  1003               	clrc
  5216     07A6  1283               	bcf	3,5	;RP0=0, select bank0
  5217     07A7  1303               	bcf	3,6	;RP1=0, select bank0
  5218     07A8  0CEB               	rrf	___fltol@f1+3,f
  5219     07A9  0CEA               	rrf	___fltol@f1+2,f
  5220     07AA  0CE9               	rrf	___fltol@f1+1,f
  5221     07AB  0CE8               	rrf	___fltol@f1,f
  5222     07AC  3EFF               	addlw	-1
  5223     07AD  1D03               	skipz
  5224     07AE  2FA5               	goto	u245_25
  5225     07AF  3001               	movlw	1
  5226     07B0  00EC               	movwf	??___fltol
  5227     07B1  086C               	movf	??___fltol,w
  5228     07B2  1683               	bsf	3,5	;RP0=1, select bank1
  5229     07B3  1303               	bcf	3,6	;RP1=0, select bank1
  5230     07B4  07A1               	addwf	___fltol@exp1^(0+128),f
  5231     07B5  1D03               	btfss	3,2
  5232     07B6  2FB8               	goto	u246_21
  5233     07B7  2FB9               	goto	u246_20
  5234     07B8                     u246_21:
  5235     07B8  2FA4               	goto	i1l2277
  5236     07B9                     u246_20:
  5237     07B9  2FD5               	goto	i1l2287
  5238     07BA                     i1l2279:
  5239     07BA  3020               	movlw	32
  5240     07BB  0221               	subwf	___fltol@exp1^(0+128),w
  5241     07BC  1C03               	skipc
  5242     07BD  2FBF               	goto	u247_21
  5243     07BE  2FC0               	goto	u247_20
  5244     07BF                     u247_21:
  5245     07BF  2FD0               	goto	i1l618
  5246     07C0                     u247_20:
  5247     07C0  2F67               	goto	i1l2257
  5248     07C1                     i1l2285:
  5249     07C1  3001               	movlw	1
  5250     07C2  1283               	bcf	3,5	;RP0=0, select bank0
  5251     07C3  1303               	bcf	3,6	;RP1=0, select bank0
  5252     07C4  00EC               	movwf	??___fltol
  5253     07C5                     u248_25:
  5254     07C5  1003               	clrc
  5255     07C6  0DE8               	rlf	___fltol@f1,f
  5256     07C7  0DE9               	rlf	___fltol@f1+1,f
  5257     07C8  0DEA               	rlf	___fltol@f1+2,f
  5258     07C9  0DEB               	rlf	___fltol@f1+3,f
  5259     07CA  0BEC               	decfsz	??___fltol,f
  5260     07CB  2FC5               	goto	u248_25
  5261     07CC  3001               	movlw	1
  5262     07CD  1683               	bsf	3,5	;RP0=1, select bank1
  5263     07CE  1303               	bcf	3,6	;RP1=0, select bank1
  5264     07CF  02A1               	subwf	___fltol@exp1^(0+128),f
  5265     07D0                     i1l618:
  5266     07D0  0821               	movf	___fltol@exp1^(0+128),w
  5267     07D1  1D03               	btfss	3,2
  5268     07D2  2FD4               	goto	u249_21
  5269     07D3  2FD5               	goto	u249_20
  5270     07D4                     u249_21:
  5271     07D4  2FC1               	goto	i1l2285
  5272     07D5                     u249_20:
  5273     07D5                     i1l2287:
  5274     07D5  0820               	movf	___fltol@sign1^(0+128),w
  5275     07D6  1903               	btfsc	3,2
  5276     07D7  2FD9               	goto	u250_21
  5277     07D8  2FDA               	goto	u250_20
  5278     07D9                     u250_21:
  5279     07D9  2FE7               	goto	i1l621
  5280     07DA                     u250_20:
  5281     07DA                     i1l2289:
  5282     07DA  1283               	bcf	3,5	;RP0=0, select bank0
  5283     07DB  1303               	bcf	3,6	;RP1=0, select bank0
  5284     07DC  09E8               	comf	___fltol@f1,f
  5285     07DD  09E9               	comf	___fltol@f1+1,f
  5286     07DE  09EA               	comf	___fltol@f1+2,f
  5287     07DF  09EB               	comf	___fltol@f1+3,f
  5288     07E0  0AE8               	incf	___fltol@f1,f
  5289     07E1  1903               	skipnz
  5290     07E2  0AE9               	incf	___fltol@f1+1,f
  5291     07E3  1903               	skipnz
  5292     07E4  0AEA               	incf	___fltol@f1+2,f
  5293     07E5  1903               	skipnz
  5294     07E6  0AEB               	incf	___fltol@f1+3,f
  5295     07E7                     i1l621:
  5296     07E7                     i1l611:
  5297     07E7  0008               	return
  5298     07E8                     __end_of___fltol:
  5299                           
  5300                           	psect	text20
  5301     0CBB                     __ptext20:	
  5302 ;; *************** function ___flmul *****************
  5303 ;; Defined at:
  5304 ;;		line 8 in file "C:\Program Files\Microchip\xc8\v2.40\pic\sources\c90\common\sprcmul.c"
  5305 ;; Parameters:    Size  Location     Type
  5306 ;;  b               4   26[BANK0 ] long 
  5307 ;;  a               4   30[BANK0 ] long 
  5308 ;; Auto vars:     Size  Location     Type
  5309 ;;  prod            4   46[BANK0 ] struct .
  5310 ;;  grs             4   40[BANK0 ] unsigned long 
  5311 ;;  temp            2   50[BANK0 ] struct .
  5312 ;;  bexp            1   45[BANK0 ] unsigned char 
  5313 ;;  aexp            1   44[BANK0 ] unsigned char 
  5314 ;;  sign            1   39[BANK0 ] unsigned char 
  5315 ;; Return value:  Size  Location     Type
  5316 ;;                  4   26[BANK0 ] unsigned char 
  5317 ;; Registers used:
  5318 ;;		wreg, status,2, status,0, btemp+1, pclath, cstack
  5319 ;; Tracked objects:
  5320 ;;		On entry : 0/0
  5321 ;;		On exit  : 0/0
  5322 ;;		Unchanged: 0/0
  5323 ;; Data sizes:     COMMON   BANK0   BANK1   BANK3   BANK2
  5324 ;;      Params:         0       8       0       0       0
  5325 ;;      Locals:         0      13       0       0       0
  5326 ;;      Temps:          0       5       0       0       0
  5327 ;;      Totals:         0      26       0       0       0
  5328 ;;Total ram usage:       26 bytes
  5329 ;; Hardware stack levels used: 1
  5330 ;; Hardware stack levels required when called: 1
  5331 ;; This function calls:
  5332 ;;		__Umul8_16
  5333 ;; This function is called by:
  5334 ;;		_map
  5335 ;; This function uses a non-reentrant model
  5336 ;;
  5337                           
  5338     0CBB                     ___flmul:	
  5339                           ;psect for function ___flmul
  5340                           
  5341     0CBB                     i1l2627:	
  5342                           ;incstack = 0
  5343                           ; Regs used in ___flmul: [wreg+status,2+status,0+btemp+1+pclath+cstack]
  5344                           
  5345     0CBB  1283               	bcf	3,5	;RP0=0, select bank0
  5346     0CBC  1303               	bcf	3,6	;RP1=0, select bank0
  5347     0CBD  083D               	movf	___flmul@b+3,w
  5348     0CBE  3980               	andlw	128
  5349     0CBF  00C7               	movwf	___flmul@sign
  5350     0CC0                     i1l2629:
  5351     0CC0  083D               	movf	___flmul@b+3,w
  5352     0CC1  00C2               	movwf	??___flmul
  5353     0CC2  0742               	addwf	??___flmul,w
  5354     0CC3  00CD               	movwf	___flmul@bexp
  5355     0CC4                     i1l2631:
  5356     0CC4  1FBC               	btfss	___flmul@b+2,7
  5357     0CC5  2CC7               	goto	u326_21
  5358     0CC6  2CC8               	goto	u326_20
  5359     0CC7                     u326_21:
  5360     0CC7  2CC9               	goto	i1l2635
  5361     0CC8                     u326_20:
  5362     0CC8                     i1l2633:
  5363     0CC8  144D               	bsf	___flmul@bexp,0
  5364     0CC9                     i1l2635:
  5365     0CC9  084D               	movf	___flmul@bexp,w
  5366     0CCA  1903               	btfsc	3,2
  5367     0CCB  2CCD               	goto	u327_21
  5368     0CCC  2CCE               	goto	u327_20
  5369     0CCD                     u327_21:
  5370     0CCD  2CDD               	goto	i1l2643
  5371     0CCE                     u327_20:
  5372     0CCE                     i1l2637:
  5373     0CCE  0A4D               	incf	___flmul@bexp,w
  5374     0CCF  1D03               	btfss	3,2
  5375     0CD0  2CD2               	goto	u328_21
  5376     0CD1  2CD3               	goto	u328_20
  5377     0CD2                     u328_21:
  5378     0CD2  2CDB               	goto	i1l2641
  5379     0CD3                     u328_20:
  5380     0CD3                     i1l2639:
  5381     0CD3  3000               	movlw	0
  5382     0CD4  00BD               	movwf	___flmul@b+3
  5383     0CD5  3000               	movlw	0
  5384     0CD6  00BC               	movwf	___flmul@b+2
  5385     0CD7  3000               	movlw	0
  5386     0CD8  00BB               	movwf	___flmul@b+1
  5387     0CD9  3000               	movlw	0
  5388     0CDA  00BA               	movwf	___flmul@b
  5389     0CDB                     i1l2641:
  5390     0CDB  17BC               	bsf	___flmul@b+2,7
  5391     0CDC  2CE5               	goto	i1l2645
  5392     0CDD                     i1l2643:
  5393     0CDD  3000               	movlw	0
  5394     0CDE  00BD               	movwf	___flmul@b+3
  5395     0CDF  3000               	movlw	0
  5396     0CE0  00BC               	movwf	___flmul@b+2
  5397     0CE1  3000               	movlw	0
  5398     0CE2  00BB               	movwf	___flmul@b+1
  5399     0CE3  3000               	movlw	0
  5400     0CE4  00BA               	movwf	___flmul@b
  5401     0CE5                     i1l2645:
  5402     0CE5  0841               	movf	___flmul@a+3,w
  5403     0CE6  3980               	andlw	128
  5404     0CE7  00C2               	movwf	??___flmul
  5405     0CE8  0842               	movf	??___flmul,w
  5406     0CE9  06C7               	xorwf	___flmul@sign,f
  5407     0CEA                     i1l2647:
  5408     0CEA  0841               	movf	___flmul@a+3,w
  5409     0CEB  00C2               	movwf	??___flmul
  5410     0CEC  0742               	addwf	??___flmul,w
  5411     0CED  00CC               	movwf	___flmul@aexp
  5412     0CEE                     i1l2649:
  5413     0CEE  1FC0               	btfss	___flmul@a+2,7
  5414     0CEF  2CF1               	goto	u329_21
  5415     0CF0  2CF2               	goto	u329_20
  5416     0CF1                     u329_21:
  5417     0CF1  2CF3               	goto	i1l2653
  5418     0CF2                     u329_20:
  5419     0CF2                     i1l2651:
  5420     0CF2  144C               	bsf	___flmul@aexp,0
  5421     0CF3                     i1l2653:
  5422     0CF3  084C               	movf	___flmul@aexp,w
  5423     0CF4  1903               	btfsc	3,2
  5424     0CF5  2CF7               	goto	u330_21
  5425     0CF6  2CF8               	goto	u330_20
  5426     0CF7                     u330_21:
  5427     0CF7  2D07               	goto	i1l2661
  5428     0CF8                     u330_20:
  5429     0CF8                     i1l2655:
  5430     0CF8  0A4C               	incf	___flmul@aexp,w
  5431     0CF9  1D03               	btfss	3,2
  5432     0CFA  2CFC               	goto	u331_21
  5433     0CFB  2CFD               	goto	u331_20
  5434     0CFC                     u331_21:
  5435     0CFC  2D05               	goto	i1l2659
  5436     0CFD                     u331_20:
  5437     0CFD                     i1l2657:
  5438     0CFD  3000               	movlw	0
  5439     0CFE  00C1               	movwf	___flmul@a+3
  5440     0CFF  3000               	movlw	0
  5441     0D00  00C0               	movwf	___flmul@a+2
  5442     0D01  3000               	movlw	0
  5443     0D02  00BF               	movwf	___flmul@a+1
  5444     0D03  3000               	movlw	0
  5445     0D04  00BE               	movwf	___flmul@a
  5446     0D05                     i1l2659:
  5447     0D05  17C0               	bsf	___flmul@a+2,7
  5448     0D06  2D0F               	goto	i1l2663
  5449     0D07                     i1l2661:
  5450     0D07  3000               	movlw	0
  5451     0D08  00C1               	movwf	___flmul@a+3
  5452     0D09  3000               	movlw	0
  5453     0D0A  00C0               	movwf	___flmul@a+2
  5454     0D0B  3000               	movlw	0
  5455     0D0C  00BF               	movwf	___flmul@a+1
  5456     0D0D  3000               	movlw	0
  5457     0D0E  00BE               	movwf	___flmul@a
  5458     0D0F                     i1l2663:
  5459     0D0F  084C               	movf	___flmul@aexp,w
  5460     0D10  1903               	btfsc	3,2
  5461     0D11  2D13               	goto	u332_21
  5462     0D12  2D14               	goto	u332_20
  5463     0D13                     u332_21:
  5464     0D13  2D19               	goto	i1l2667
  5465     0D14                     u332_20:
  5466     0D14                     i1l2665:
  5467     0D14  084D               	movf	___flmul@bexp,w
  5468     0D15  1D03               	btfss	3,2
  5469     0D16  2D18               	goto	u333_21
  5470     0D17  2D19               	goto	u333_20
  5471     0D18                     u333_21:
  5472     0D18  2D22               	goto	i1l2671
  5473     0D19                     u333_20:
  5474     0D19                     i1l2667:
  5475     0D19  3000               	movlw	0
  5476     0D1A  00BD               	movwf	?___flmul+3
  5477     0D1B  3000               	movlw	0
  5478     0D1C  00BC               	movwf	?___flmul+2
  5479     0D1D  3000               	movlw	0
  5480     0D1E  00BB               	movwf	?___flmul+1
  5481     0D1F  3000               	movlw	0
  5482     0D20  00BA               	movwf	?___flmul
  5483     0D21  2FFF               	goto	i1l814
  5484     0D22                     i1l2671:
  5485     0D22  083A               	movf	___flmul@b,w
  5486     0D23  00F0               	movwf	__Umul8_16@multiplicand
  5487     0D24  0840               	movf	___flmul@a+2,w
  5488     0D25  160A  118A  2479  120A  158A  	fcall	__Umul8_16
  5489     0D2A  0871               	movf	?__Umul8_16+1,w
  5490     0D2B  1283               	bcf	3,5	;RP0=0, select bank0
  5491     0D2C  1303               	bcf	3,6	;RP1=0, select bank0
  5492     0D2D  00D3               	movwf	___flmul@temp+1
  5493     0D2E  0870               	movf	?__Umul8_16,w
  5494     0D2F  00D2               	movwf	___flmul@temp
  5495     0D30                     i1l2673:
  5496     0D30  0852               	movf	___flmul@temp,w
  5497     0D31  00C2               	movwf	??___flmul
  5498     0D32  01C3               	clrf	??___flmul+1
  5499     0D33  01C4               	clrf	??___flmul+2
  5500     0D34  01C5               	clrf	??___flmul+3
  5501     0D35  0845               	movf	??___flmul+3,w
  5502     0D36  00CB               	movwf	___flmul@grs+3
  5503     0D37  0844               	movf	??___flmul+2,w
  5504     0D38  00CA               	movwf	___flmul@grs+2
  5505     0D39  0843               	movf	??___flmul+1,w
  5506     0D3A  00C9               	movwf	___flmul@grs+1
  5507     0D3B  0842               	movf	??___flmul,w
  5508     0D3C  00C8               	movwf	___flmul@grs
  5509     0D3D                     i1l2675:
  5510     0D3D  0853               	movf	___flmul@temp+1,w
  5511     0D3E  00C2               	movwf	??___flmul
  5512     0D3F  01C3               	clrf	??___flmul+1
  5513     0D40  01C4               	clrf	??___flmul+2
  5514     0D41  01C5               	clrf	??___flmul+3
  5515     0D42  0845               	movf	??___flmul+3,w
  5516     0D43  00D1               	movwf	___flmul@prod+3
  5517     0D44  0844               	movf	??___flmul+2,w
  5518     0D45  00D0               	movwf	___flmul@prod+2
  5519     0D46  0843               	movf	??___flmul+1,w
  5520     0D47  00CF               	movwf	___flmul@prod+1
  5521     0D48  0842               	movf	??___flmul,w
  5522     0D49  00CE               	movwf	___flmul@prod
  5523     0D4A  083B               	movf	___flmul@b+1,w
  5524     0D4B  00F0               	movwf	__Umul8_16@multiplicand
  5525     0D4C  083F               	movf	___flmul@a+1,w
  5526     0D4D  160A  118A  2479  120A  158A  	fcall	__Umul8_16
  5527     0D52  0871               	movf	?__Umul8_16+1,w
  5528     0D53  1283               	bcf	3,5	;RP0=0, select bank0
  5529     0D54  1303               	bcf	3,6	;RP1=0, select bank0
  5530     0D55  00D3               	movwf	___flmul@temp+1
  5531     0D56  0870               	movf	?__Umul8_16,w
  5532     0D57  00D2               	movwf	___flmul@temp
  5533     0D58                     i1l2677:
  5534     0D58  0852               	movf	___flmul@temp,w
  5535     0D59  00C2               	movwf	??___flmul
  5536     0D5A  01C3               	clrf	??___flmul+1
  5537     0D5B  01C4               	clrf	??___flmul+2
  5538     0D5C  01C5               	clrf	??___flmul+3
  5539     0D5D  0842               	movf	??___flmul,w
  5540     0D5E  07C8               	addwf	___flmul@grs,f
  5541     0D5F  0843               	movf	??___flmul+1,w
  5542     0D60  1103               	clrz
  5543     0D61  1803               	skipnc
  5544     0D62  3E01               	addlw	1
  5545     0D63  1903               	skipnz
  5546     0D64  2D66               	goto	u334_21
  5547     0D65  07C9               	addwf	___flmul@grs+1,f
  5548     0D66                     u334_21:
  5549     0D66  0844               	movf	??___flmul+2,w
  5550     0D67  1103               	clrz
  5551     0D68  1803               	skipnc
  5552     0D69  3E01               	addlw	1
  5553     0D6A  1903               	skipnz
  5554     0D6B  2D6D               	goto	u334_22
  5555     0D6C  07CA               	addwf	___flmul@grs+2,f
  5556     0D6D                     u334_22:
  5557     0D6D  0845               	movf	??___flmul+3,w
  5558     0D6E  1103               	clrz
  5559     0D6F  1803               	skipnc
  5560     0D70  3E01               	addlw	1
  5561     0D71  1903               	skipnz
  5562     0D72  2D74               	goto	u334_23
  5563     0D73  07CB               	addwf	___flmul@grs+3,f
  5564     0D74                     u334_23:
  5565     0D74                     i1l2679:
  5566     0D74  0853               	movf	___flmul@temp+1,w
  5567     0D75  00C2               	movwf	??___flmul
  5568     0D76  01C3               	clrf	??___flmul+1
  5569     0D77  01C4               	clrf	??___flmul+2
  5570     0D78  01C5               	clrf	??___flmul+3
  5571     0D79  0842               	movf	??___flmul,w
  5572     0D7A  07CE               	addwf	___flmul@prod,f
  5573     0D7B  0843               	movf	??___flmul+1,w
  5574     0D7C  1103               	clrz
  5575     0D7D  1803               	skipnc
  5576     0D7E  3E01               	addlw	1
  5577     0D7F  1903               	skipnz
  5578     0D80  2D82               	goto	u335_21
  5579     0D81  07CF               	addwf	___flmul@prod+1,f
  5580     0D82                     u335_21:
  5581     0D82  0844               	movf	??___flmul+2,w
  5582     0D83  1103               	clrz
  5583     0D84  1803               	skipnc
  5584     0D85  3E01               	addlw	1
  5585     0D86  1903               	skipnz
  5586     0D87  2D89               	goto	u335_22
  5587     0D88  07D0               	addwf	___flmul@prod+2,f
  5588     0D89                     u335_22:
  5589     0D89  0845               	movf	??___flmul+3,w
  5590     0D8A  1103               	clrz
  5591     0D8B  1803               	skipnc
  5592     0D8C  3E01               	addlw	1
  5593     0D8D  1903               	skipnz
  5594     0D8E  2D90               	goto	u335_23
  5595     0D8F  07D1               	addwf	___flmul@prod+3,f
  5596     0D90                     u335_23:
  5597     0D90  083C               	movf	___flmul@b+2,w
  5598     0D91  00F0               	movwf	__Umul8_16@multiplicand
  5599     0D92  083E               	movf	___flmul@a,w
  5600     0D93  160A  118A  2479  120A  158A  	fcall	__Umul8_16
  5601     0D98  0871               	movf	?__Umul8_16+1,w
  5602     0D99  1283               	bcf	3,5	;RP0=0, select bank0
  5603     0D9A  1303               	bcf	3,6	;RP1=0, select bank0
  5604     0D9B  00D3               	movwf	___flmul@temp+1
  5605     0D9C  0870               	movf	?__Umul8_16,w
  5606     0D9D  00D2               	movwf	___flmul@temp
  5607     0D9E                     i1l2681:
  5608     0D9E  0852               	movf	___flmul@temp,w
  5609     0D9F  00C2               	movwf	??___flmul
  5610     0DA0  01C3               	clrf	??___flmul+1
  5611     0DA1  01C4               	clrf	??___flmul+2
  5612     0DA2  01C5               	clrf	??___flmul+3
  5613     0DA3  0842               	movf	??___flmul,w
  5614     0DA4  07C8               	addwf	___flmul@grs,f
  5615     0DA5  0843               	movf	??___flmul+1,w
  5616     0DA6  1103               	clrz
  5617     0DA7  1803               	skipnc
  5618     0DA8  3E01               	addlw	1
  5619     0DA9  1903               	skipnz
  5620     0DAA  2DAC               	goto	u336_21
  5621     0DAB  07C9               	addwf	___flmul@grs+1,f
  5622     0DAC                     u336_21:
  5623     0DAC  0844               	movf	??___flmul+2,w
  5624     0DAD  1103               	clrz
  5625     0DAE  1803               	skipnc
  5626     0DAF  3E01               	addlw	1
  5627     0DB0  1903               	skipnz
  5628     0DB1  2DB3               	goto	u336_22
  5629     0DB2  07CA               	addwf	___flmul@grs+2,f
  5630     0DB3                     u336_22:
  5631     0DB3  0845               	movf	??___flmul+3,w
  5632     0DB4  1103               	clrz
  5633     0DB5  1803               	skipnc
  5634     0DB6  3E01               	addlw	1
  5635     0DB7  1903               	skipnz
  5636     0DB8  2DBA               	goto	u336_23
  5637     0DB9  07CB               	addwf	___flmul@grs+3,f
  5638     0DBA                     u336_23:
  5639     0DBA                     i1l2683:
  5640     0DBA  0853               	movf	___flmul@temp+1,w
  5641     0DBB  00C2               	movwf	??___flmul
  5642     0DBC  01C3               	clrf	??___flmul+1
  5643     0DBD  01C4               	clrf	??___flmul+2
  5644     0DBE  01C5               	clrf	??___flmul+3
  5645     0DBF  0842               	movf	??___flmul,w
  5646     0DC0  07CE               	addwf	___flmul@prod,f
  5647     0DC1  0843               	movf	??___flmul+1,w
  5648     0DC2  1103               	clrz
  5649     0DC3  1803               	skipnc
  5650     0DC4  3E01               	addlw	1
  5651     0DC5  1903               	skipnz
  5652     0DC6  2DC8               	goto	u337_21
  5653     0DC7  07CF               	addwf	___flmul@prod+1,f
  5654     0DC8                     u337_21:
  5655     0DC8  0844               	movf	??___flmul+2,w
  5656     0DC9  1103               	clrz
  5657     0DCA  1803               	skipnc
  5658     0DCB  3E01               	addlw	1
  5659     0DCC  1903               	skipnz
  5660     0DCD  2DCF               	goto	u337_22
  5661     0DCE  07D0               	addwf	___flmul@prod+2,f
  5662     0DCF                     u337_22:
  5663     0DCF  0845               	movf	??___flmul+3,w
  5664     0DD0  1103               	clrz
  5665     0DD1  1803               	skipnc
  5666     0DD2  3E01               	addlw	1
  5667     0DD3  1903               	skipnz
  5668     0DD4  2DD6               	goto	u337_23
  5669     0DD5  07D1               	addwf	___flmul@prod+3,f
  5670     0DD6                     u337_23:
  5671     0DD6                     i1l2685:
  5672     0DD6  3008               	movlw	8
  5673     0DD7  00C2               	movwf	??___flmul
  5674     0DD8                     u338_25:
  5675     0DD8  1003               	clrc
  5676     0DD9  0DC8               	rlf	___flmul@grs,f
  5677     0DDA  0DC9               	rlf	___flmul@grs+1,f
  5678     0DDB  0DCA               	rlf	___flmul@grs+2,f
  5679     0DDC  0DCB               	rlf	___flmul@grs+3,f
  5680     0DDD  0BC2               	decfsz	??___flmul,f
  5681     0DDE  2DD8               	goto	u338_25
  5682     0DDF                     i1l2687:
  5683     0DDF  083B               	movf	___flmul@b+1,w
  5684     0DE0  00F0               	movwf	__Umul8_16@multiplicand
  5685     0DE1  083E               	movf	___flmul@a,w
  5686     0DE2  160A  118A  2479  120A  158A  	fcall	__Umul8_16
  5687     0DE7  0871               	movf	?__Umul8_16+1,w
  5688     0DE8  1283               	bcf	3,5	;RP0=0, select bank0
  5689     0DE9  1303               	bcf	3,6	;RP1=0, select bank0
  5690     0DEA  00D3               	movwf	___flmul@temp+1
  5691     0DEB  0870               	movf	?__Umul8_16,w
  5692     0DEC  00D2               	movwf	___flmul@temp
  5693     0DED                     i1l2689:
  5694     0DED  0852               	movf	___flmul@temp,w
  5695     0DEE  00C2               	movwf	??___flmul
  5696     0DEF  0853               	movf	___flmul@temp+1,w
  5697     0DF0  00C3               	movwf	??___flmul+1
  5698     0DF1  01C4               	clrf	??___flmul+2
  5699     0DF2  01C5               	clrf	??___flmul+3
  5700     0DF3  0842               	movf	??___flmul,w
  5701     0DF4  07C8               	addwf	___flmul@grs,f
  5702     0DF5  0843               	movf	??___flmul+1,w
  5703     0DF6  1103               	clrz
  5704     0DF7  1803               	skipnc
  5705     0DF8  3E01               	addlw	1
  5706     0DF9  1903               	skipnz
  5707     0DFA  2DFC               	goto	u339_21
  5708     0DFB  07C9               	addwf	___flmul@grs+1,f
  5709     0DFC                     u339_21:
  5710     0DFC  0844               	movf	??___flmul+2,w
  5711     0DFD  1103               	clrz
  5712     0DFE  1803               	skipnc
  5713     0DFF  3E01               	addlw	1
  5714     0E00  1903               	skipnz
  5715     0E01  2E03               	goto	u339_22
  5716     0E02  07CA               	addwf	___flmul@grs+2,f
  5717     0E03                     u339_22:
  5718     0E03  0845               	movf	??___flmul+3,w
  5719     0E04  1103               	clrz
  5720     0E05  1803               	skipnc
  5721     0E06  3E01               	addlw	1
  5722     0E07  1903               	skipnz
  5723     0E08  2E0A               	goto	u339_23
  5724     0E09  07CB               	addwf	___flmul@grs+3,f
  5725     0E0A                     u339_23:
  5726     0E0A                     i1l2691:
  5727     0E0A  083A               	movf	___flmul@b,w
  5728     0E0B  00F0               	movwf	__Umul8_16@multiplicand
  5729     0E0C  083F               	movf	___flmul@a+1,w
  5730     0E0D  160A  118A  2479  120A  158A  	fcall	__Umul8_16
  5731     0E12  0871               	movf	?__Umul8_16+1,w
  5732     0E13  1283               	bcf	3,5	;RP0=0, select bank0
  5733     0E14  1303               	bcf	3,6	;RP1=0, select bank0
  5734     0E15  00D3               	movwf	___flmul@temp+1
  5735     0E16  0870               	movf	?__Umul8_16,w
  5736     0E17  00D2               	movwf	___flmul@temp
  5737     0E18                     i1l2693:
  5738     0E18  0852               	movf	___flmul@temp,w
  5739     0E19  00C2               	movwf	??___flmul
  5740     0E1A  0853               	movf	___flmul@temp+1,w
  5741     0E1B  00C3               	movwf	??___flmul+1
  5742     0E1C  01C4               	clrf	??___flmul+2
  5743     0E1D  01C5               	clrf	??___flmul+3
  5744     0E1E  0842               	movf	??___flmul,w
  5745     0E1F  07C8               	addwf	___flmul@grs,f
  5746     0E20  0843               	movf	??___flmul+1,w
  5747     0E21  1103               	clrz
  5748     0E22  1803               	skipnc
  5749     0E23  3E01               	addlw	1
  5750     0E24  1903               	skipnz
  5751     0E25  2E27               	goto	u340_21
  5752     0E26  07C9               	addwf	___flmul@grs+1,f
  5753     0E27                     u340_21:
  5754     0E27  0844               	movf	??___flmul+2,w
  5755     0E28  1103               	clrz
  5756     0E29  1803               	skipnc
  5757     0E2A  3E01               	addlw	1
  5758     0E2B  1903               	skipnz
  5759     0E2C  2E2E               	goto	u340_22
  5760     0E2D  07CA               	addwf	___flmul@grs+2,f
  5761     0E2E                     u340_22:
  5762     0E2E  0845               	movf	??___flmul+3,w
  5763     0E2F  1103               	clrz
  5764     0E30  1803               	skipnc
  5765     0E31  3E01               	addlw	1
  5766     0E32  1903               	skipnz
  5767     0E33  2E35               	goto	u340_23
  5768     0E34  07CB               	addwf	___flmul@grs+3,f
  5769     0E35                     u340_23:
  5770     0E35                     i1l2695:
  5771     0E35  3008               	movlw	8
  5772     0E36  00C2               	movwf	??___flmul
  5773     0E37                     u341_25:
  5774     0E37  1003               	clrc
  5775     0E38  0DC8               	rlf	___flmul@grs,f
  5776     0E39  0DC9               	rlf	___flmul@grs+1,f
  5777     0E3A  0DCA               	rlf	___flmul@grs+2,f
  5778     0E3B  0DCB               	rlf	___flmul@grs+3,f
  5779     0E3C  0BC2               	decfsz	??___flmul,f
  5780     0E3D  2E37               	goto	u341_25
  5781     0E3E  083A               	movf	___flmul@b,w
  5782     0E3F  00F0               	movwf	__Umul8_16@multiplicand
  5783     0E40  083E               	movf	___flmul@a,w
  5784     0E41  160A  118A  2479  120A  158A  	fcall	__Umul8_16
  5785     0E46  0871               	movf	?__Umul8_16+1,w
  5786     0E47  1283               	bcf	3,5	;RP0=0, select bank0
  5787     0E48  1303               	bcf	3,6	;RP1=0, select bank0
  5788     0E49  00D3               	movwf	___flmul@temp+1
  5789     0E4A  0870               	movf	?__Umul8_16,w
  5790     0E4B  00D2               	movwf	___flmul@temp
  5791     0E4C                     i1l2697:
  5792     0E4C  0852               	movf	___flmul@temp,w
  5793     0E4D  00C2               	movwf	??___flmul
  5794     0E4E  0853               	movf	___flmul@temp+1,w
  5795     0E4F  00C3               	movwf	??___flmul+1
  5796     0E50  01C4               	clrf	??___flmul+2
  5797     0E51  01C5               	clrf	??___flmul+3
  5798     0E52  0842               	movf	??___flmul,w
  5799     0E53  07C8               	addwf	___flmul@grs,f
  5800     0E54  0843               	movf	??___flmul+1,w
  5801     0E55  1103               	clrz
  5802     0E56  1803               	skipnc
  5803     0E57  3E01               	addlw	1
  5804     0E58  1903               	skipnz
  5805     0E59  2E5B               	goto	u342_21
  5806     0E5A  07C9               	addwf	___flmul@grs+1,f
  5807     0E5B                     u342_21:
  5808     0E5B  0844               	movf	??___flmul+2,w
  5809     0E5C  1103               	clrz
  5810     0E5D  1803               	skipnc
  5811     0E5E  3E01               	addlw	1
  5812     0E5F  1903               	skipnz
  5813     0E60  2E62               	goto	u342_22
  5814     0E61  07CA               	addwf	___flmul@grs+2,f
  5815     0E62                     u342_22:
  5816     0E62  0845               	movf	??___flmul+3,w
  5817     0E63  1103               	clrz
  5818     0E64  1803               	skipnc
  5819     0E65  3E01               	addlw	1
  5820     0E66  1903               	skipnz
  5821     0E67  2E69               	goto	u342_23
  5822     0E68  07CB               	addwf	___flmul@grs+3,f
  5823     0E69                     u342_23:
  5824     0E69                     i1l2699:
  5825     0E69  083B               	movf	___flmul@b+1,w
  5826     0E6A  00F0               	movwf	__Umul8_16@multiplicand
  5827     0E6B  0840               	movf	___flmul@a+2,w
  5828     0E6C  160A  118A  2479  120A  158A  	fcall	__Umul8_16
  5829     0E71  0871               	movf	?__Umul8_16+1,w
  5830     0E72  1283               	bcf	3,5	;RP0=0, select bank0
  5831     0E73  1303               	bcf	3,6	;RP1=0, select bank0
  5832     0E74  00D3               	movwf	___flmul@temp+1
  5833     0E75  0870               	movf	?__Umul8_16,w
  5834     0E76  00D2               	movwf	___flmul@temp
  5835     0E77  0852               	movf	___flmul@temp,w
  5836     0E78  00C2               	movwf	??___flmul
  5837     0E79  0853               	movf	___flmul@temp+1,w
  5838     0E7A  00C3               	movwf	??___flmul+1
  5839     0E7B  01C4               	clrf	??___flmul+2
  5840     0E7C  01C5               	clrf	??___flmul+3
  5841     0E7D  0842               	movf	??___flmul,w
  5842     0E7E  07CE               	addwf	___flmul@prod,f
  5843     0E7F  0843               	movf	??___flmul+1,w
  5844     0E80  1103               	clrz
  5845     0E81  1803               	skipnc
  5846     0E82  3E01               	addlw	1
  5847     0E83  1903               	skipnz
  5848     0E84  2E86               	goto	u343_21
  5849     0E85  07CF               	addwf	___flmul@prod+1,f
  5850     0E86                     u343_21:
  5851     0E86  0844               	movf	??___flmul+2,w
  5852     0E87  1103               	clrz
  5853     0E88  1803               	skipnc
  5854     0E89  3E01               	addlw	1
  5855     0E8A  1903               	skipnz
  5856     0E8B  2E8D               	goto	u343_22
  5857     0E8C  07D0               	addwf	___flmul@prod+2,f
  5858     0E8D                     u343_22:
  5859     0E8D  0845               	movf	??___flmul+3,w
  5860     0E8E  1103               	clrz
  5861     0E8F  1803               	skipnc
  5862     0E90  3E01               	addlw	1
  5863     0E91  1903               	skipnz
  5864     0E92  2E94               	goto	u343_23
  5865     0E93  07D1               	addwf	___flmul@prod+3,f
  5866     0E94                     u343_23:
  5867     0E94                     i1l2701:
  5868     0E94  083C               	movf	___flmul@b+2,w
  5869     0E95  00F0               	movwf	__Umul8_16@multiplicand
  5870     0E96  083F               	movf	___flmul@a+1,w
  5871     0E97  160A  118A  2479  120A  158A  	fcall	__Umul8_16
  5872     0E9C  0871               	movf	?__Umul8_16+1,w
  5873     0E9D  1283               	bcf	3,5	;RP0=0, select bank0
  5874     0E9E  1303               	bcf	3,6	;RP1=0, select bank0
  5875     0E9F  00D3               	movwf	___flmul@temp+1
  5876     0EA0  0870               	movf	?__Umul8_16,w
  5877     0EA1  00D2               	movwf	___flmul@temp
  5878     0EA2                     i1l2703:
  5879     0EA2  0852               	movf	___flmul@temp,w
  5880     0EA3  00C2               	movwf	??___flmul
  5881     0EA4  0853               	movf	___flmul@temp+1,w
  5882     0EA5  00C3               	movwf	??___flmul+1
  5883     0EA6  01C4               	clrf	??___flmul+2
  5884     0EA7  01C5               	clrf	??___flmul+3
  5885     0EA8  0842               	movf	??___flmul,w
  5886     0EA9  07CE               	addwf	___flmul@prod,f
  5887     0EAA  0843               	movf	??___flmul+1,w
  5888     0EAB  1103               	clrz
  5889     0EAC  1803               	skipnc
  5890     0EAD  3E01               	addlw	1
  5891     0EAE  1903               	skipnz
  5892     0EAF  2EB1               	goto	u344_21
  5893     0EB0  07CF               	addwf	___flmul@prod+1,f
  5894     0EB1                     u344_21:
  5895     0EB1  0844               	movf	??___flmul+2,w
  5896     0EB2  1103               	clrz
  5897     0EB3  1803               	skipnc
  5898     0EB4  3E01               	addlw	1
  5899     0EB5  1903               	skipnz
  5900     0EB6  2EB8               	goto	u344_22
  5901     0EB7  07D0               	addwf	___flmul@prod+2,f
  5902     0EB8                     u344_22:
  5903     0EB8  0845               	movf	??___flmul+3,w
  5904     0EB9  1103               	clrz
  5905     0EBA  1803               	skipnc
  5906     0EBB  3E01               	addlw	1
  5907     0EBC  1903               	skipnz
  5908     0EBD  2EBF               	goto	u344_23
  5909     0EBE  07D1               	addwf	___flmul@prod+3,f
  5910     0EBF                     u344_23:
  5911     0EBF  083C               	movf	___flmul@b+2,w
  5912     0EC0  00F0               	movwf	__Umul8_16@multiplicand
  5913     0EC1  0840               	movf	___flmul@a+2,w
  5914     0EC2  160A  118A  2479  120A  158A  	fcall	__Umul8_16
  5915     0EC7  0871               	movf	?__Umul8_16+1,w
  5916     0EC8  1283               	bcf	3,5	;RP0=0, select bank0
  5917     0EC9  1303               	bcf	3,6	;RP1=0, select bank0
  5918     0ECA  00D3               	movwf	___flmul@temp+1
  5919     0ECB  0870               	movf	?__Umul8_16,w
  5920     0ECC  00D2               	movwf	___flmul@temp
  5921     0ECD                     i1l2705:
  5922     0ECD  0852               	movf	___flmul@temp,w
  5923     0ECE  00C2               	movwf	??___flmul
  5924     0ECF  0853               	movf	___flmul@temp+1,w
  5925     0ED0  00C3               	movwf	??___flmul+1
  5926     0ED1  01C4               	clrf	??___flmul+2
  5927     0ED2  01C5               	clrf	??___flmul+3
  5928     0ED3  3008               	movlw	8
  5929     0ED4                     u345_25:
  5930     0ED4  1003               	clrc
  5931     0ED5  0DC2               	rlf	??___flmul,f
  5932     0ED6  0DC3               	rlf	??___flmul+1,f
  5933     0ED7  0DC4               	rlf	??___flmul+2,f
  5934     0ED8  0DC5               	rlf	??___flmul+3,f
  5935     0ED9                     u345_20:
  5936     0ED9  3EFF               	addlw	-1
  5937     0EDA  1D03               	skipz
  5938     0EDB  2ED4               	goto	u345_25
  5939     0EDC  0842               	movf	??___flmul,w
  5940     0EDD  07CE               	addwf	___flmul@prod,f
  5941     0EDE  0843               	movf	??___flmul+1,w
  5942     0EDF  1103               	clrz
  5943     0EE0  1803               	skipnc
  5944     0EE1  3E01               	addlw	1
  5945     0EE2  1903               	skipnz
  5946     0EE3  2EE5               	goto	u346_21
  5947     0EE4  07CF               	addwf	___flmul@prod+1,f
  5948     0EE5                     u346_21:
  5949     0EE5  0844               	movf	??___flmul+2,w
  5950     0EE6  1103               	clrz
  5951     0EE7  1803               	skipnc
  5952     0EE8  3E01               	addlw	1
  5953     0EE9  1903               	skipnz
  5954     0EEA  2EEC               	goto	u346_22
  5955     0EEB  07D0               	addwf	___flmul@prod+2,f
  5956     0EEC                     u346_22:
  5957     0EEC  0845               	movf	??___flmul+3,w
  5958     0EED  1103               	clrz
  5959     0EEE  1803               	skipnc
  5960     0EEF  3E01               	addlw	1
  5961     0EF0  1903               	skipnz
  5962     0EF1  2EF3               	goto	u346_23
  5963     0EF2  07D1               	addwf	___flmul@prod+3,f
  5964     0EF3                     u346_23:
  5965     0EF3                     i1l2707:
  5966     0EF3  0848               	movf	___flmul@grs,w
  5967     0EF4  00C2               	movwf	??___flmul
  5968     0EF5  0849               	movf	___flmul@grs+1,w
  5969     0EF6  00C3               	movwf	??___flmul+1
  5970     0EF7  084A               	movf	___flmul@grs+2,w
  5971     0EF8  00C4               	movwf	??___flmul+2
  5972     0EF9  084B               	movf	___flmul@grs+3,w
  5973     0EFA  00C5               	movwf	??___flmul+3
  5974     0EFB  3018               	movlw	24
  5975     0EFC                     u347_25:
  5976     0EFC  1003               	clrc
  5977     0EFD  0CC5               	rrf	??___flmul+3,f
  5978     0EFE  0CC4               	rrf	??___flmul+2,f
  5979     0EFF  0CC3               	rrf	??___flmul+1,f
  5980     0F00  0CC2               	rrf	??___flmul,f
  5981     0F01                     u347_20:
  5982     0F01  3EFF               	addlw	-1
  5983     0F02  1D03               	skipz
  5984     0F03  2EFC               	goto	u347_25
  5985     0F04  0842               	movf	??___flmul,w
  5986     0F05  07CE               	addwf	___flmul@prod,f
  5987     0F06  0843               	movf	??___flmul+1,w
  5988     0F07  1103               	clrz
  5989     0F08  1803               	skipnc
  5990     0F09  3E01               	addlw	1
  5991     0F0A  1903               	skipnz
  5992     0F0B  2F0D               	goto	u348_21
  5993     0F0C  07CF               	addwf	___flmul@prod+1,f
  5994     0F0D                     u348_21:
  5995     0F0D  0844               	movf	??___flmul+2,w
  5996     0F0E  1103               	clrz
  5997     0F0F  1803               	skipnc
  5998     0F10  3E01               	addlw	1
  5999     0F11  1903               	skipnz
  6000     0F12  2F14               	goto	u348_22
  6001     0F13  07D0               	addwf	___flmul@prod+2,f
  6002     0F14                     u348_22:
  6003     0F14  0845               	movf	??___flmul+3,w
  6004     0F15  1103               	clrz
  6005     0F16  1803               	skipnc
  6006     0F17  3E01               	addlw	1
  6007     0F18  1903               	skipnz
  6008     0F19  2F1B               	goto	u348_23
  6009     0F1A  07D1               	addwf	___flmul@prod+3,f
  6010     0F1B                     u348_23:
  6011     0F1B                     i1l2709:
  6012     0F1B  3008               	movlw	8
  6013     0F1C  00C2               	movwf	??___flmul
  6014     0F1D                     u349_25:
  6015     0F1D  1003               	clrc
  6016     0F1E  0DC8               	rlf	___flmul@grs,f
  6017     0F1F  0DC9               	rlf	___flmul@grs+1,f
  6018     0F20  0DCA               	rlf	___flmul@grs+2,f
  6019     0F21  0DCB               	rlf	___flmul@grs+3,f
  6020     0F22  0BC2               	decfsz	??___flmul,f
  6021     0F23  2F1D               	goto	u349_25
  6022     0F24                     i1l2711:
  6023     0F24  084D               	movf	___flmul@bexp,w
  6024     0F25  074C               	addwf	___flmul@aexp,w
  6025     0F26  00C2               	movwf	??___flmul
  6026     0F27  01C3               	clrf	??___flmul+1
  6027     0F28  0DC3               	rlf	??___flmul+1,f
  6028     0F29  0842               	movf	??___flmul,w
  6029     0F2A  3E82               	addlw	130
  6030     0F2B  00D2               	movwf	___flmul@temp
  6031     0F2C  0843               	movf	??___flmul+1,w
  6032     0F2D  1803               	skipnc
  6033     0F2E  3E01               	addlw	1
  6034     0F2F  3EFF               	addlw	255
  6035     0F30  00D3               	movwf	___flmul@temp+1
  6036     0F31  2F4F               	goto	i1l2723
  6037     0F32                     i1l2713:
  6038     0F32  3001               	movlw	1
  6039     0F33  00C2               	movwf	??___flmul
  6040     0F34                     u350_25:
  6041     0F34  1003               	clrc
  6042     0F35  0DCE               	rlf	___flmul@prod,f
  6043     0F36  0DCF               	rlf	___flmul@prod+1,f
  6044     0F37  0DD0               	rlf	___flmul@prod+2,f
  6045     0F38  0DD1               	rlf	___flmul@prod+3,f
  6046     0F39  0BC2               	decfsz	??___flmul,f
  6047     0F3A  2F34               	goto	u350_25
  6048     0F3B                     i1l2715:
  6049     0F3B  1FCB               	btfss	___flmul@grs+3,7
  6050     0F3C  2F3E               	goto	u351_21
  6051     0F3D  2F3F               	goto	u351_20
  6052     0F3E                     u351_21:
  6053     0F3E  2F40               	goto	i1l2719
  6054     0F3F                     u351_20:
  6055     0F3F                     i1l2717:
  6056     0F3F  144E               	bsf	___flmul@prod,0
  6057     0F40                     i1l2719:
  6058     0F40  3001               	movlw	1
  6059     0F41  00C2               	movwf	??___flmul
  6060     0F42                     u352_25:
  6061     0F42  1003               	clrc
  6062     0F43  0DC8               	rlf	___flmul@grs,f
  6063     0F44  0DC9               	rlf	___flmul@grs+1,f
  6064     0F45  0DCA               	rlf	___flmul@grs+2,f
  6065     0F46  0DCB               	rlf	___flmul@grs+3,f
  6066     0F47  0BC2               	decfsz	??___flmul,f
  6067     0F48  2F42               	goto	u352_25
  6068     0F49                     i1l2721:
  6069     0F49  30FF               	movlw	255
  6070     0F4A  07D2               	addwf	___flmul@temp,f
  6071     0F4B  1803               	skipnc
  6072     0F4C  0AD3               	incf	___flmul@temp+1,f
  6073     0F4D  30FF               	movlw	255
  6074     0F4E  07D3               	addwf	___flmul@temp+1,f
  6075     0F4F                     i1l2723:
  6076     0F4F  1FD0               	btfss	___flmul@prod+2,7
  6077     0F50  2F52               	goto	u353_21
  6078     0F51  2F53               	goto	u353_20
  6079     0F52                     u353_21:
  6080     0F52  2F32               	goto	i1l2713
  6081     0F53                     u353_20:
  6082     0F53                     i1l2725:
  6083     0F53  01CC               	clrf	___flmul@aexp
  6084     0F54                     i1l2727:
  6085     0F54  1FCB               	btfss	___flmul@grs+3,7
  6086     0F55  2F57               	goto	u354_21
  6087     0F56  2F58               	goto	u354_20
  6088     0F57                     u354_21:
  6089     0F57  2F74               	goto	i1l2735
  6090     0F58                     u354_20:
  6091     0F58                     i1l2729:
  6092     0F58  30FF               	movlw	255
  6093     0F59  0548               	andwf	___flmul@grs,w
  6094     0F5A  00C2               	movwf	??___flmul
  6095     0F5B  30FF               	movlw	255
  6096     0F5C  0549               	andwf	___flmul@grs+1,w
  6097     0F5D  00C3               	movwf	??___flmul+1
  6098     0F5E  30FF               	movlw	255
  6099     0F5F  054A               	andwf	___flmul@grs+2,w
  6100     0F60  00C4               	movwf	??___flmul+2
  6101     0F61  307F               	movlw	127
  6102     0F62  054B               	andwf	___flmul@grs+3,w
  6103     0F63  00C5               	movwf	??___flmul+3
  6104     0F64  0845               	movf	??___flmul+3,w
  6105     0F65  0444               	iorwf	??___flmul+2,w
  6106     0F66  0443               	iorwf	??___flmul+1,w
  6107     0F67  0442               	iorwf	??___flmul,w
  6108     0F68  1903               	skipnz
  6109     0F69  2F6B               	goto	u355_21
  6110     0F6A  2F6C               	goto	u355_20
  6111     0F6B                     u355_21:
  6112     0F6B  2F6F               	goto	i1l820
  6113     0F6C                     u355_20:
  6114     0F6C                     i1l2731:
  6115     0F6C  01CC               	clrf	___flmul@aexp
  6116     0F6D  0ACC               	incf	___flmul@aexp,f
  6117     0F6E  2F74               	goto	i1l2735
  6118     0F6F                     i1l820:
  6119     0F6F  1C4E               	btfss	___flmul@prod,0
  6120     0F70  2F72               	goto	u356_21
  6121     0F71  2F73               	goto	u356_20
  6122     0F72                     u356_21:
  6123     0F72  2F74               	goto	i1l2735
  6124     0F73                     u356_20:
  6125     0F73  2F6C               	goto	i1l2731
  6126     0F74                     i1l2735:
  6127     0F74  084C               	movf	___flmul@aexp,w
  6128     0F75  1903               	btfsc	3,2
  6129     0F76  2F78               	goto	u357_21
  6130     0F77  2F79               	goto	u357_20
  6131     0F78                     u357_21:
  6132     0F78  2FAA               	goto	i1l2745
  6133     0F79                     u357_20:
  6134     0F79                     i1l2737:
  6135     0F79  3001               	movlw	1
  6136     0F7A  07CE               	addwf	___flmul@prod,f
  6137     0F7B  3000               	movlw	0
  6138     0F7C  1803               	skipnc
  6139     0F7D  3001               	movlw	1
  6140     0F7E  07CF               	addwf	___flmul@prod+1,f
  6141     0F7F  3000               	movlw	0
  6142     0F80  1803               	skipnc
  6143     0F81  3001               	movlw	1
  6144     0F82  07D0               	addwf	___flmul@prod+2,f
  6145     0F83  3000               	movlw	0
  6146     0F84  1803               	skipnc
  6147     0F85  3001               	movlw	1
  6148     0F86  07D1               	addwf	___flmul@prod+3,f
  6149     0F87                     i1l2739:
  6150     0F87  1C51               	btfss	___flmul@prod+3,0
  6151     0F88  2F8A               	goto	u358_21
  6152     0F89  2F8B               	goto	u358_20
  6153     0F8A                     u358_21:
  6154     0F8A  2FAA               	goto	i1l2745
  6155     0F8B                     u358_20:
  6156     0F8B                     i1l2741:
  6157     0F8B  084E               	movf	___flmul@prod,w
  6158     0F8C  00C2               	movwf	??___flmul
  6159     0F8D  084F               	movf	___flmul@prod+1,w
  6160     0F8E  00C3               	movwf	??___flmul+1
  6161     0F8F  0850               	movf	___flmul@prod+2,w
  6162     0F90  00C4               	movwf	??___flmul+2
  6163     0F91  0851               	movf	___flmul@prod+3,w
  6164     0F92  00C5               	movwf	??___flmul+3
  6165     0F93  3001               	movlw	1
  6166     0F94  00C6               	movwf	??___flmul+4
  6167     0F95                     u359_25:
  6168     0F95  0D45               	rlf	??___flmul+3,w
  6169     0F96  0CC5               	rrf	??___flmul+3,f
  6170     0F97  0CC4               	rrf	??___flmul+2,f
  6171     0F98  0CC3               	rrf	??___flmul+1,f
  6172     0F99  0CC2               	rrf	??___flmul,f
  6173     0F9A                     u359_20:
  6174     0F9A  0BC6               	decfsz	??___flmul+4,f
  6175     0F9B  2F95               	goto	u359_25
  6176     0F9C  0845               	movf	??___flmul+3,w
  6177     0F9D  00D1               	movwf	___flmul@prod+3
  6178     0F9E  0844               	movf	??___flmul+2,w
  6179     0F9F  00D0               	movwf	___flmul@prod+2
  6180     0FA0  0843               	movf	??___flmul+1,w
  6181     0FA1  00CF               	movwf	___flmul@prod+1
  6182     0FA2  0842               	movf	??___flmul,w
  6183     0FA3  00CE               	movwf	___flmul@prod
  6184     0FA4                     i1l2743:
  6185     0FA4  3001               	movlw	1
  6186     0FA5  07D2               	addwf	___flmul@temp,f
  6187     0FA6  1803               	skipnc
  6188     0FA7  0AD3               	incf	___flmul@temp+1,f
  6189     0FA8  3000               	movlw	0
  6190     0FA9  07D3               	addwf	___flmul@temp+1,f
  6191     0FAA                     i1l2745:
  6192     0FAA  0853               	movf	___flmul@temp+1,w
  6193     0FAB  3A80               	xorlw	128
  6194     0FAC  00FF               	movwf	btemp+1
  6195     0FAD  3080               	movlw	128
  6196     0FAE  027F               	subwf	btemp+1,w
  6197     0FAF  1D03               	skipz
  6198     0FB0  2FB3               	goto	u360_25
  6199     0FB1  30FF               	movlw	255
  6200     0FB2  0252               	subwf	___flmul@temp,w
  6201     0FB3                     u360_25:
  6202     0FB3  1C03               	skipc
  6203     0FB4  2FB6               	goto	u360_21
  6204     0FB5  2FB7               	goto	u360_20
  6205     0FB6                     u360_21:
  6206     0FB6  2FC2               	goto	i1l2749
  6207     0FB7                     u360_20:
  6208     0FB7                     i1l2747:
  6209     0FB7  307F               	movlw	127
  6210     0FB8  1283               	bcf	3,5	;RP0=0, select bank0
  6211     0FB9  1303               	bcf	3,6	;RP1=0, select bank0
  6212     0FBA  00D1               	movwf	___flmul@prod+3
  6213     0FBB  3080               	movlw	128
  6214     0FBC  00D0               	movwf	___flmul@prod+2
  6215     0FBD  3000               	movlw	0
  6216     0FBE  00CF               	movwf	___flmul@prod+1
  6217     0FBF  3000               	movlw	0
  6218     0FC0  00CE               	movwf	___flmul@prod
  6219     0FC1  2FF3               	goto	i1l826
  6220     0FC2                     i1l2749:
  6221     0FC2  1283               	bcf	3,5	;RP0=0, select bank0
  6222     0FC3  1303               	bcf	3,6	;RP1=0, select bank0
  6223     0FC4  0853               	movf	___flmul@temp+1,w
  6224     0FC5  3A80               	xorlw	128
  6225     0FC6  00FF               	movwf	btemp+1
  6226     0FC7  3080               	movlw	128
  6227     0FC8  027F               	subwf	btemp+1,w
  6228     0FC9  1D03               	skipz
  6229     0FCA  2FCD               	goto	u361_25
  6230     0FCB  3001               	movlw	1
  6231     0FCC  0252               	subwf	___flmul@temp,w
  6232     0FCD                     u361_25:
  6233     0FCD  1803               	skipnc
  6234     0FCE  2FD0               	goto	u361_21
  6235     0FCF  2FD1               	goto	u361_20
  6236     0FD0                     u361_21:
  6237     0FD0  2FDD               	goto	i1l2755
  6238     0FD1                     u361_20:
  6239     0FD1                     i1l2751:
  6240     0FD1  3000               	movlw	0
  6241     0FD2  1283               	bcf	3,5	;RP0=0, select bank0
  6242     0FD3  1303               	bcf	3,6	;RP1=0, select bank0
  6243     0FD4  00D1               	movwf	___flmul@prod+3
  6244     0FD5  3000               	movlw	0
  6245     0FD6  00D0               	movwf	___flmul@prod+2
  6246     0FD7  3000               	movlw	0
  6247     0FD8  00CF               	movwf	___flmul@prod+1
  6248     0FD9  3000               	movlw	0
  6249     0FDA  00CE               	movwf	___flmul@prod
  6250     0FDB                     i1l2753:
  6251     0FDB  01C7               	clrf	___flmul@sign
  6252     0FDC  2FF3               	goto	i1l826
  6253     0FDD                     i1l2755:
  6254     0FDD  1283               	bcf	3,5	;RP0=0, select bank0
  6255     0FDE  1303               	bcf	3,6	;RP1=0, select bank0
  6256     0FDF  0852               	movf	___flmul@temp,w
  6257     0FE0  00CD               	movwf	___flmul@bexp
  6258     0FE1  30FF               	movlw	255
  6259     0FE2  05CE               	andwf	___flmul@prod,f
  6260     0FE3  30FF               	movlw	255
  6261     0FE4  05CF               	andwf	___flmul@prod+1,f
  6262     0FE5  307F               	movlw	127
  6263     0FE6  05D0               	andwf	___flmul@prod+2,f
  6264     0FE7  3000               	movlw	0
  6265     0FE8  05D1               	andwf	___flmul@prod+3,f
  6266     0FE9                     i1l2757:
  6267     0FE9  1C4D               	btfss	___flmul@bexp,0
  6268     0FEA  2FEC               	goto	u362_21
  6269     0FEB  2FED               	goto	u362_20
  6270     0FEC                     u362_21:
  6271     0FEC  2FEE               	goto	i1l2761
  6272     0FED                     u362_20:
  6273     0FED                     i1l2759:
  6274     0FED  17D0               	bsf	___flmul@prod+2,7
  6275     0FEE                     i1l2761:
  6276     0FEE  084D               	movf	___flmul@bexp,w
  6277     0FEF  00C2               	movwf	??___flmul
  6278     0FF0  1003               	clrc
  6279     0FF1  0C42               	rrf	??___flmul,w
  6280     0FF2  00D1               	movwf	___flmul@prod+3
  6281     0FF3                     i1l826:
  6282     0FF3  0847               	movf	___flmul@sign,w
  6283     0FF4  00C2               	movwf	??___flmul
  6284     0FF5  0842               	movf	??___flmul,w
  6285     0FF6  04D1               	iorwf	___flmul@prod+3,f
  6286     0FF7                     i1l2763:
  6287     0FF7  0851               	movf	___flmul@prod+3,w
  6288     0FF8  00BD               	movwf	?___flmul+3
  6289     0FF9  0850               	movf	___flmul@prod+2,w
  6290     0FFA  00BC               	movwf	?___flmul+2
  6291     0FFB  084F               	movf	___flmul@prod+1,w
  6292     0FFC  00BB               	movwf	?___flmul+1
  6293     0FFD  084E               	movf	___flmul@prod,w
  6294     0FFE  00BA               	movwf	?___flmul
  6295     0FFF                     i1l814:
  6296     0FFF  0008               	return
  6297     1000                     __end_of___flmul:
  6298                           
  6299                           	psect	text21
  6300     1479                     __ptext21:	
  6301 ;; *************** function __Umul8_16 *****************
  6302 ;; Defined at:
  6303 ;;		line 4 in file "C:\Program Files\Microchip\xc8\v2.40\pic\sources\c90\common\Umul8_16.c"
  6304 ;; Parameters:    Size  Location     Type
  6305 ;;  multiplier      1    wreg     unsigned char 
  6306 ;;  multiplicand    1    0[COMMON] unsigned char 
  6307 ;; Auto vars:     Size  Location     Type
  6308 ;;  multiplier      1    8[COMMON] unsigned char 
  6309 ;;  word_mpld       2    6[COMMON] unsigned int 
  6310 ;;  product         2    4[COMMON] unsigned int 
  6311 ;; Return value:  Size  Location     Type
  6312 ;;                  2    0[COMMON] unsigned int 
  6313 ;; Registers used:
  6314 ;;		wreg, status,2, status,0
  6315 ;; Tracked objects:
  6316 ;;		On entry : 0/0
  6317 ;;		On exit  : 0/0
  6318 ;;		Unchanged: 0/0
  6319 ;; Data sizes:     COMMON   BANK0   BANK1   BANK3   BANK2
  6320 ;;      Params:         2       0       0       0       0
  6321 ;;      Locals:         5       0       0       0       0
  6322 ;;      Temps:          2       0       0       0       0
  6323 ;;      Totals:         9       0       0       0       0
  6324 ;;Total ram usage:        9 bytes
  6325 ;; Hardware stack levels used: 1
  6326 ;; This function calls:
  6327 ;;		Nothing
  6328 ;; This function is called by:
  6329 ;;		___flmul
  6330 ;; This function uses a non-reentrant model
  6331 ;;
  6332                           
  6333     1479                     __Umul8_16:	
  6334                           ;psect for function __Umul8_16
  6335                           
  6336                           
  6337                           ;incstack = 0
  6338                           ; Regs used in __Umul8_16: [wreg+status,2+status,0]
  6339                           ;__Umul8_16@multiplier stored from wreg
  6340     1479  00F8               	movwf	__Umul8_16@multiplier
  6341     147A                     i1l2193:
  6342     147A  01F4               	clrf	__Umul8_16@product
  6343     147B  01F5               	clrf	__Umul8_16@product+1
  6344     147C                     i1l2195:
  6345     147C  0870               	movf	__Umul8_16@multiplicand,w
  6346     147D  00F2               	movwf	??__Umul8_16
  6347     147E  01F3               	clrf	??__Umul8_16+1
  6348     147F  0872               	movf	??__Umul8_16,w
  6349     1480  00F6               	movwf	__Umul8_16@word_mpld
  6350     1481  0873               	movf	??__Umul8_16+1,w
  6351     1482  00F7               	movwf	__Umul8_16@word_mpld+1
  6352     1483                     i1l2197:
  6353     1483  1C78               	btfss	__Umul8_16@multiplier,0
  6354     1484  2C86               	goto	u230_21
  6355     1485  2C87               	goto	u230_20
  6356     1486                     u230_21:
  6357     1486  2C8D               	goto	i1l833
  6358     1487                     u230_20:
  6359     1487                     i1l2199:
  6360     1487  0876               	movf	__Umul8_16@word_mpld,w
  6361     1488  07F4               	addwf	__Umul8_16@product,f
  6362     1489  1803               	skipnc
  6363     148A  0AF5               	incf	__Umul8_16@product+1,f
  6364     148B  0877               	movf	__Umul8_16@word_mpld+1,w
  6365     148C  07F5               	addwf	__Umul8_16@product+1,f
  6366     148D                     i1l833:
  6367     148D  3001               	movlw	1
  6368     148E                     u231_25:
  6369     148E  1003               	clrc
  6370     148F  0DF6               	rlf	__Umul8_16@word_mpld,f
  6371     1490  0DF7               	rlf	__Umul8_16@word_mpld+1,f
  6372     1491  3EFF               	addlw	-1
  6373     1492  1D03               	skipz
  6374     1493  2C8E               	goto	u231_25
  6375     1494  1003               	clrc
  6376     1495  0CF8               	rrf	__Umul8_16@multiplier,f
  6377     1496                     i1l2201:
  6378     1496  0878               	movf	__Umul8_16@multiplier,w
  6379     1497  1D03               	btfss	3,2
  6380     1498  2C9A               	goto	u232_21
  6381     1499  2C9B               	goto	u232_20
  6382     149A                     u232_21:
  6383     149A  2C83               	goto	i1l2197
  6384     149B                     u232_20:
  6385     149B                     i1l2203:
  6386     149B  0875               	movf	__Umul8_16@product+1,w
  6387     149C  00F1               	movwf	?__Umul8_16+1
  6388     149D  0874               	movf	__Umul8_16@product,w
  6389     149E  00F0               	movwf	?__Umul8_16
  6390     149F                     i1l835:
  6391     149F  0008               	return
  6392     14A0                     __end_of__Umul8_16:
  6393                           
  6394                           	psect	text22
  6395     0AE8                     __ptext22:	
  6396 ;; *************** function ___fldiv *****************
  6397 ;; Defined at:
  6398 ;;		line 8 in file "C:\Program Files\Microchip\xc8\v2.40\pic\sources\c90\common\sprcdiv.c"
  6399 ;; Parameters:    Size  Location     Type
  6400 ;;  a               4    0[BANK0 ] unsigned int 
  6401 ;;  b               4    4[BANK0 ] unsigned int 
  6402 ;; Auto vars:     Size  Location     Type
  6403 ;;  grs             4   20[BANK0 ] unsigned long 
  6404 ;;  rem             4   13[BANK0 ] unsigned long 
  6405 ;;  new_exp         2   18[BANK0 ] int 
  6406 ;;  aexp            1   25[BANK0 ] unsigned char 
  6407 ;;  bexp            1   24[BANK0 ] unsigned char 
  6408 ;;  sign            1   17[BANK0 ] unsigned char 
  6409 ;; Return value:  Size  Location     Type
  6410 ;;                  4    0[BANK0 ] unsigned char 
  6411 ;; Registers used:
  6412 ;;		wreg, status,2, status,0, btemp+1
  6413 ;; Tracked objects:
  6414 ;;		On entry : 0/0
  6415 ;;		On exit  : 0/0
  6416 ;;		Unchanged: 0/0
  6417 ;; Data sizes:     COMMON   BANK0   BANK1   BANK3   BANK2
  6418 ;;      Params:         0       8       0       0       0
  6419 ;;      Locals:         0      13       0       0       0
  6420 ;;      Temps:          0       5       0       0       0
  6421 ;;      Totals:         0      26       0       0       0
  6422 ;;Total ram usage:       26 bytes
  6423 ;; Hardware stack levels used: 1
  6424 ;; This function calls:
  6425 ;;		Nothing
  6426 ;; This function is called by:
  6427 ;;		_map
  6428 ;; This function uses a non-reentrant model
  6429 ;;
  6430                           
  6431     0AE8                     ___fldiv:	
  6432                           ;psect for function ___fldiv
  6433                           
  6434     0AE8                     i1l2485:	
  6435                           ;incstack = 0
  6436                           ; Regs used in ___fldiv: [wreg+status,2+status,0+btemp+1]
  6437                           
  6438     0AE8  1283               	bcf	3,5	;RP0=0, select bank0
  6439     0AE9  1303               	bcf	3,6	;RP1=0, select bank0
  6440     0AEA  0827               	movf	___fldiv@b+3,w
  6441     0AEB  3980               	andlw	128
  6442     0AEC  00B1               	movwf	___fldiv@sign
  6443     0AED                     i1l2487:
  6444     0AED  0827               	movf	___fldiv@b+3,w
  6445     0AEE  00A8               	movwf	??___fldiv
  6446     0AEF  0728               	addwf	??___fldiv,w
  6447     0AF0  00B8               	movwf	___fldiv@bexp
  6448     0AF1                     i1l2489:
  6449     0AF1  1FA6               	btfss	___fldiv@b+2,7
  6450     0AF2  2AF4               	goto	u297_21
  6451     0AF3  2AF5               	goto	u297_20
  6452     0AF4                     u297_21:
  6453     0AF4  2AF6               	goto	i1l2493
  6454     0AF5                     u297_20:
  6455     0AF5                     i1l2491:
  6456     0AF5  1438               	bsf	___fldiv@bexp,0
  6457     0AF6                     i1l2493:
  6458     0AF6  0838               	movf	___fldiv@bexp,w
  6459     0AF7  1903               	btfsc	3,2
  6460     0AF8  2AFA               	goto	u298_21
  6461     0AF9  2AFB               	goto	u298_20
  6462     0AFA                     u298_21:
  6463     0AFA  2B0B               	goto	i1l2503
  6464     0AFB                     u298_20:
  6465     0AFB                     i1l2495:
  6466     0AFB  0A38               	incf	___fldiv@bexp,w
  6467     0AFC  1D03               	btfss	3,2
  6468     0AFD  2AFF               	goto	u299_21
  6469     0AFE  2B00               	goto	u299_20
  6470     0AFF                     u299_21:
  6471     0AFF  2B08               	goto	i1l2499
  6472     0B00                     u299_20:
  6473     0B00                     i1l2497:
  6474     0B00  3000               	movlw	0
  6475     0B01  00A7               	movwf	___fldiv@b+3
  6476     0B02  3000               	movlw	0
  6477     0B03  00A6               	movwf	___fldiv@b+2
  6478     0B04  3000               	movlw	0
  6479     0B05  00A5               	movwf	___fldiv@b+1
  6480     0B06  3000               	movlw	0
  6481     0B07  00A4               	movwf	___fldiv@b
  6482     0B08                     i1l2499:
  6483     0B08  17A6               	bsf	___fldiv@b+2,7
  6484     0B09                     i1l2501:
  6485     0B09  01A7               	clrf	___fldiv@b+3
  6486     0B0A  2B13               	goto	i1l2505
  6487     0B0B                     i1l2503:
  6488     0B0B  3000               	movlw	0
  6489     0B0C  00A7               	movwf	___fldiv@b+3
  6490     0B0D  3000               	movlw	0
  6491     0B0E  00A6               	movwf	___fldiv@b+2
  6492     0B0F  3000               	movlw	0
  6493     0B10  00A5               	movwf	___fldiv@b+1
  6494     0B11  3000               	movlw	0
  6495     0B12  00A4               	movwf	___fldiv@b
  6496     0B13                     i1l2505:
  6497     0B13  0823               	movf	___fldiv@a+3,w
  6498     0B14  3980               	andlw	128
  6499     0B15  00A8               	movwf	??___fldiv
  6500     0B16  0828               	movf	??___fldiv,w
  6501     0B17  06B1               	xorwf	___fldiv@sign,f
  6502     0B18                     i1l2507:
  6503     0B18  0823               	movf	___fldiv@a+3,w
  6504     0B19  00A8               	movwf	??___fldiv
  6505     0B1A  0728               	addwf	??___fldiv,w
  6506     0B1B  00B9               	movwf	___fldiv@aexp
  6507     0B1C                     i1l2509:
  6508     0B1C  1FA2               	btfss	___fldiv@a+2,7
  6509     0B1D  2B1F               	goto	u300_21
  6510     0B1E  2B20               	goto	u300_20
  6511     0B1F                     u300_21:
  6512     0B1F  2B21               	goto	i1l2513
  6513     0B20                     u300_20:
  6514     0B20                     i1l2511:
  6515     0B20  1439               	bsf	___fldiv@aexp,0
  6516     0B21                     i1l2513:
  6517     0B21  0839               	movf	___fldiv@aexp,w
  6518     0B22  1903               	btfsc	3,2
  6519     0B23  2B25               	goto	u301_21
  6520     0B24  2B26               	goto	u301_20
  6521     0B25                     u301_21:
  6522     0B25  2B36               	goto	i1l2523
  6523     0B26                     u301_20:
  6524     0B26                     i1l2515:
  6525     0B26  0A39               	incf	___fldiv@aexp,w
  6526     0B27  1D03               	btfss	3,2
  6527     0B28  2B2A               	goto	u302_21
  6528     0B29  2B2B               	goto	u302_20
  6529     0B2A                     u302_21:
  6530     0B2A  2B33               	goto	i1l2519
  6531     0B2B                     u302_20:
  6532     0B2B                     i1l2517:
  6533     0B2B  3000               	movlw	0
  6534     0B2C  00A3               	movwf	___fldiv@a+3
  6535     0B2D  3000               	movlw	0
  6536     0B2E  00A2               	movwf	___fldiv@a+2
  6537     0B2F  3000               	movlw	0
  6538     0B30  00A1               	movwf	___fldiv@a+1
  6539     0B31  3000               	movlw	0
  6540     0B32  00A0               	movwf	___fldiv@a
  6541     0B33                     i1l2519:
  6542     0B33  17A2               	bsf	___fldiv@a+2,7
  6543     0B34                     i1l2521:
  6544     0B34  01A3               	clrf	___fldiv@a+3
  6545     0B35  2B3E               	goto	i1l774
  6546     0B36                     i1l2523:
  6547     0B36  3000               	movlw	0
  6548     0B37  00A3               	movwf	___fldiv@a+3
  6549     0B38  3000               	movlw	0
  6550     0B39  00A2               	movwf	___fldiv@a+2
  6551     0B3A  3000               	movlw	0
  6552     0B3B  00A1               	movwf	___fldiv@a+1
  6553     0B3C  3000               	movlw	0
  6554     0B3D  00A0               	movwf	___fldiv@a
  6555     0B3E                     i1l774:
  6556     0B3E  0823               	movf	___fldiv@a+3,w
  6557     0B3F  0422               	iorwf	___fldiv@a+2,w
  6558     0B40  0421               	iorwf	___fldiv@a+1,w
  6559     0B41  0420               	iorwf	___fldiv@a,w
  6560     0B42  1D03               	skipz
  6561     0B43  2B45               	goto	u303_21
  6562     0B44  2B46               	goto	u303_20
  6563     0B45                     u303_21:
  6564     0B45  2B5F               	goto	i1l2533
  6565     0B46                     u303_20:
  6566     0B46                     i1l2525:
  6567     0B46  3000               	movlw	0
  6568     0B47  00A7               	movwf	___fldiv@b+3
  6569     0B48  3000               	movlw	0
  6570     0B49  00A6               	movwf	___fldiv@b+2
  6571     0B4A  3000               	movlw	0
  6572     0B4B  00A5               	movwf	___fldiv@b+1
  6573     0B4C  3000               	movlw	0
  6574     0B4D  00A4               	movwf	___fldiv@b
  6575     0B4E  3080               	movlw	128
  6576     0B4F  04A6               	iorwf	___fldiv@b+2,f
  6577     0B50  307F               	movlw	127
  6578     0B51  04A7               	iorwf	___fldiv@b+3,f
  6579     0B52                     i1l2527:
  6580     0B52  0831               	movf	___fldiv@sign,w
  6581     0B53  00A8               	movwf	??___fldiv
  6582     0B54  0828               	movf	??___fldiv,w
  6583     0B55  04A7               	iorwf	___fldiv@b+3,f
  6584     0B56                     i1l2529:
  6585     0B56  0827               	movf	___fldiv@b+3,w
  6586     0B57  00A3               	movwf	?___fldiv+3
  6587     0B58  0826               	movf	___fldiv@b+2,w
  6588     0B59  00A2               	movwf	?___fldiv+2
  6589     0B5A  0825               	movf	___fldiv@b+1,w
  6590     0B5B  00A1               	movwf	?___fldiv+1
  6591     0B5C  0824               	movf	___fldiv@b,w
  6592     0B5D  00A0               	movwf	?___fldiv
  6593     0B5E  2CBA               	goto	i1l776
  6594     0B5F                     i1l2533:
  6595     0B5F  0838               	movf	___fldiv@bexp,w
  6596     0B60  1D03               	btfss	3,2
  6597     0B61  2B63               	goto	u304_21
  6598     0B62  2B64               	goto	u304_20
  6599     0B63                     u304_21:
  6600     0B63  2B6D               	goto	i1l2539
  6601     0B64                     u304_20:
  6602     0B64                     i1l2535:
  6603     0B64  3000               	movlw	0
  6604     0B65  00A3               	movwf	?___fldiv+3
  6605     0B66  3000               	movlw	0
  6606     0B67  00A2               	movwf	?___fldiv+2
  6607     0B68  3000               	movlw	0
  6608     0B69  00A1               	movwf	?___fldiv+1
  6609     0B6A  3000               	movlw	0
  6610     0B6B  00A0               	movwf	?___fldiv
  6611     0B6C  2CBA               	goto	i1l776
  6612     0B6D                     i1l2539:
  6613     0B6D  0838               	movf	___fldiv@bexp,w
  6614     0B6E  00A8               	movwf	??___fldiv
  6615     0B6F  01A9               	clrf	??___fldiv+1
  6616     0B70  0829               	movf	??___fldiv+1,w
  6617     0B71  00AB               	movwf	??___fldiv+3
  6618     0B72  0839               	movf	___fldiv@aexp,w
  6619     0B73  0228               	subwf	??___fldiv,w
  6620     0B74  00AA               	movwf	??___fldiv+2
  6621     0B75  1C03               	skipc
  6622     0B76  03AB               	decf	??___fldiv+3,f
  6623     0B77  082A               	movf	??___fldiv+2,w
  6624     0B78  3E7F               	addlw	127
  6625     0B79  00B2               	movwf	___fldiv@new_exp
  6626     0B7A  082B               	movf	??___fldiv+3,w
  6627     0B7B  1803               	skipnc
  6628     0B7C  3E01               	addlw	1
  6629     0B7D  3E00               	addlw	0
  6630     0B7E  00B3               	movwf	___fldiv@new_exp+1
  6631     0B7F                     i1l2541:
  6632     0B7F  0827               	movf	___fldiv@b+3,w
  6633     0B80  00B0               	movwf	___fldiv@rem+3
  6634     0B81  0826               	movf	___fldiv@b+2,w
  6635     0B82  00AF               	movwf	___fldiv@rem+2
  6636     0B83  0825               	movf	___fldiv@b+1,w
  6637     0B84  00AE               	movwf	___fldiv@rem+1
  6638     0B85  0824               	movf	___fldiv@b,w
  6639     0B86  00AD               	movwf	___fldiv@rem
  6640     0B87                     i1l2543:
  6641     0B87  3000               	movlw	0
  6642     0B88  00A7               	movwf	___fldiv@b+3
  6643     0B89  3000               	movlw	0
  6644     0B8A  00A6               	movwf	___fldiv@b+2
  6645     0B8B  3000               	movlw	0
  6646     0B8C  00A5               	movwf	___fldiv@b+1
  6647     0B8D  3000               	movlw	0
  6648     0B8E  00A4               	movwf	___fldiv@b
  6649     0B8F                     i1l2545:
  6650     0B8F  3000               	movlw	0
  6651     0B90  00B7               	movwf	___fldiv@grs+3
  6652     0B91  3000               	movlw	0
  6653     0B92  00B6               	movwf	___fldiv@grs+2
  6654     0B93  3000               	movlw	0
  6655     0B94  00B5               	movwf	___fldiv@grs+1
  6656     0B95  3000               	movlw	0
  6657     0B96  00B4               	movwf	___fldiv@grs
  6658     0B97                     i1l2547:
  6659     0B97  01B9               	clrf	___fldiv@aexp
  6660     0B98  2BE3               	goto	i1l2567
  6661     0B99                     i1l2549:
  6662     0B99  0839               	movf	___fldiv@aexp,w
  6663     0B9A  1903               	btfsc	3,2
  6664     0B9B  2B9D               	goto	u305_21
  6665     0B9C  2B9E               	goto	u305_20
  6666     0B9D                     u305_21:
  6667     0B9D  2BBE               	goto	i1l2559
  6668     0B9E                     u305_20:
  6669     0B9E                     i1l2551:
  6670     0B9E  3001               	movlw	1
  6671     0B9F  00A8               	movwf	??___fldiv
  6672     0BA0                     u306_25:
  6673     0BA0  1003               	clrc
  6674     0BA1  0DAD               	rlf	___fldiv@rem,f
  6675     0BA2  0DAE               	rlf	___fldiv@rem+1,f
  6676     0BA3  0DAF               	rlf	___fldiv@rem+2,f
  6677     0BA4  0DB0               	rlf	___fldiv@rem+3,f
  6678     0BA5  0BA8               	decfsz	??___fldiv,f
  6679     0BA6  2BA0               	goto	u306_25
  6680     0BA7  3001               	movlw	1
  6681     0BA8  00A8               	movwf	??___fldiv
  6682     0BA9                     u307_25:
  6683     0BA9  1003               	clrc
  6684     0BAA  0DA4               	rlf	___fldiv@b,f
  6685     0BAB  0DA5               	rlf	___fldiv@b+1,f
  6686     0BAC  0DA6               	rlf	___fldiv@b+2,f
  6687     0BAD  0DA7               	rlf	___fldiv@b+3,f
  6688     0BAE  0BA8               	decfsz	??___fldiv,f
  6689     0BAF  2BA9               	goto	u307_25
  6690     0BB0                     i1l2553:
  6691     0BB0  1FB7               	btfss	___fldiv@grs+3,7
  6692     0BB1  2BB3               	goto	u308_21
  6693     0BB2  2BB4               	goto	u308_20
  6694     0BB3                     u308_21:
  6695     0BB3  2BB5               	goto	i1l2557
  6696     0BB4                     u308_20:
  6697     0BB4                     i1l2555:
  6698     0BB4  1424               	bsf	___fldiv@b,0
  6699     0BB5                     i1l2557:
  6700     0BB5  3001               	movlw	1
  6701     0BB6  00A8               	movwf	??___fldiv
  6702     0BB7                     u309_25:
  6703     0BB7  1003               	clrc
  6704     0BB8  0DB4               	rlf	___fldiv@grs,f
  6705     0BB9  0DB5               	rlf	___fldiv@grs+1,f
  6706     0BBA  0DB6               	rlf	___fldiv@grs+2,f
  6707     0BBB  0DB7               	rlf	___fldiv@grs+3,f
  6708     0BBC  0BA8               	decfsz	??___fldiv,f
  6709     0BBD  2BB7               	goto	u309_25
  6710     0BBE                     i1l2559:
  6711     0BBE  0823               	movf	___fldiv@a+3,w
  6712     0BBF  0230               	subwf	___fldiv@rem+3,w
  6713     0BC0  1D03               	skipz
  6714     0BC1  2BCC               	goto	u310_25
  6715     0BC2  0822               	movf	___fldiv@a+2,w
  6716     0BC3  022F               	subwf	___fldiv@rem+2,w
  6717     0BC4  1D03               	skipz
  6718     0BC5  2BCC               	goto	u310_25
  6719     0BC6  0821               	movf	___fldiv@a+1,w
  6720     0BC7  022E               	subwf	___fldiv@rem+1,w
  6721     0BC8  1D03               	skipz
  6722     0BC9  2BCC               	goto	u310_25
  6723     0BCA  0820               	movf	___fldiv@a,w
  6724     0BCB  022D               	subwf	___fldiv@rem,w
  6725     0BCC                     u310_25:
  6726     0BCC  1C03               	skipc
  6727     0BCD  2BCF               	goto	u310_21
  6728     0BCE  2BD0               	goto	u310_20
  6729     0BCF                     u310_21:
  6730     0BCF  2BDF               	goto	i1l2565
  6731     0BD0                     u310_20:
  6732     0BD0                     i1l2561:
  6733     0BD0  1737               	bsf	___fldiv@grs+3,6
  6734     0BD1                     i1l2563:
  6735     0BD1  0820               	movf	___fldiv@a,w
  6736     0BD2  02AD               	subwf	___fldiv@rem,f
  6737     0BD3  0821               	movf	___fldiv@a+1,w
  6738     0BD4  1C03               	skipc
  6739     0BD5  0F21               	incfsz	___fldiv@a+1,w
  6740     0BD6  02AE               	subwf	___fldiv@rem+1,f
  6741     0BD7  0822               	movf	___fldiv@a+2,w
  6742     0BD8  1C03               	skipc
  6743     0BD9  0F22               	incfsz	___fldiv@a+2,w
  6744     0BDA  02AF               	subwf	___fldiv@rem+2,f
  6745     0BDB  0823               	movf	___fldiv@a+3,w
  6746     0BDC  1C03               	skipc
  6747     0BDD  0F23               	incfsz	___fldiv@a+3,w
  6748     0BDE  02B0               	subwf	___fldiv@rem+3,f
  6749     0BDF                     i1l2565:
  6750     0BDF  3001               	movlw	1
  6751     0BE0  00A8               	movwf	??___fldiv
  6752     0BE1  0828               	movf	??___fldiv,w
  6753     0BE2  07B9               	addwf	___fldiv@aexp,f
  6754     0BE3                     i1l2567:
  6755     0BE3  301A               	movlw	26
  6756     0BE4  0239               	subwf	___fldiv@aexp,w
  6757     0BE5  1C03               	skipc
  6758     0BE6  2BE8               	goto	u311_21
  6759     0BE7  2BE9               	goto	u311_20
  6760     0BE8                     u311_21:
  6761     0BE8  2B99               	goto	i1l2549
  6762     0BE9                     u311_20:
  6763     0BE9                     i1l2569:
  6764     0BE9  0830               	movf	___fldiv@rem+3,w
  6765     0BEA  042F               	iorwf	___fldiv@rem+2,w
  6766     0BEB  042E               	iorwf	___fldiv@rem+1,w
  6767     0BEC  042D               	iorwf	___fldiv@rem,w
  6768     0BED  1903               	skipnz
  6769     0BEE  2BF0               	goto	u312_21
  6770     0BEF  2BF1               	goto	u312_20
  6771     0BF0                     u312_21:
  6772     0BF0  2C10               	goto	i1l2583
  6773     0BF1                     u312_20:
  6774     0BF1                     i1l2571:
  6775     0BF1  1434               	bsf	___fldiv@grs,0
  6776     0BF2  2C10               	goto	i1l2583
  6777     0BF3                     i1l2573:
  6778     0BF3  3001               	movlw	1
  6779     0BF4  00A8               	movwf	??___fldiv
  6780     0BF5                     u313_25:
  6781     0BF5  1003               	clrc
  6782     0BF6  0DA4               	rlf	___fldiv@b,f
  6783     0BF7  0DA5               	rlf	___fldiv@b+1,f
  6784     0BF8  0DA6               	rlf	___fldiv@b+2,f
  6785     0BF9  0DA7               	rlf	___fldiv@b+3,f
  6786     0BFA  0BA8               	decfsz	??___fldiv,f
  6787     0BFB  2BF5               	goto	u313_25
  6788     0BFC                     i1l2575:
  6789     0BFC  1FB7               	btfss	___fldiv@grs+3,7
  6790     0BFD  2BFF               	goto	u314_21
  6791     0BFE  2C00               	goto	u314_20
  6792     0BFF                     u314_21:
  6793     0BFF  2C01               	goto	i1l2579
  6794     0C00                     u314_20:
  6795     0C00                     i1l2577:
  6796     0C00  1424               	bsf	___fldiv@b,0
  6797     0C01                     i1l2579:
  6798     0C01  3001               	movlw	1
  6799     0C02  00A8               	movwf	??___fldiv
  6800     0C03                     u315_25:
  6801     0C03  1003               	clrc
  6802     0C04  0DB4               	rlf	___fldiv@grs,f
  6803     0C05  0DB5               	rlf	___fldiv@grs+1,f
  6804     0C06  0DB6               	rlf	___fldiv@grs+2,f
  6805     0C07  0DB7               	rlf	___fldiv@grs+3,f
  6806     0C08  0BA8               	decfsz	??___fldiv,f
  6807     0C09  2C03               	goto	u315_25
  6808     0C0A                     i1l2581:
  6809     0C0A  30FF               	movlw	255
  6810     0C0B  07B2               	addwf	___fldiv@new_exp,f
  6811     0C0C  1803               	skipnc
  6812     0C0D  0AB3               	incf	___fldiv@new_exp+1,f
  6813     0C0E  30FF               	movlw	255
  6814     0C0F  07B3               	addwf	___fldiv@new_exp+1,f
  6815     0C10                     i1l2583:
  6816     0C10  1FA6               	btfss	___fldiv@b+2,7
  6817     0C11  2C13               	goto	u316_21
  6818     0C12  2C14               	goto	u316_20
  6819     0C13                     u316_21:
  6820     0C13  2BF3               	goto	i1l2573
  6821     0C14                     u316_20:
  6822     0C14                     i1l2585:
  6823     0C14  01B9               	clrf	___fldiv@aexp
  6824     0C15                     i1l2587:
  6825     0C15  1FB7               	btfss	___fldiv@grs+3,7
  6826     0C16  2C18               	goto	u317_21
  6827     0C17  2C19               	goto	u317_20
  6828     0C18                     u317_21:
  6829     0C18  2C35               	goto	i1l2595
  6830     0C19                     u317_20:
  6831     0C19                     i1l2589:
  6832     0C19  30FF               	movlw	255
  6833     0C1A  0534               	andwf	___fldiv@grs,w
  6834     0C1B  00A8               	movwf	??___fldiv
  6835     0C1C  30FF               	movlw	255
  6836     0C1D  0535               	andwf	___fldiv@grs+1,w
  6837     0C1E  00A9               	movwf	??___fldiv+1
  6838     0C1F  30FF               	movlw	255
  6839     0C20  0536               	andwf	___fldiv@grs+2,w
  6840     0C21  00AA               	movwf	??___fldiv+2
  6841     0C22  307F               	movlw	127
  6842     0C23  0537               	andwf	___fldiv@grs+3,w
  6843     0C24  00AB               	movwf	??___fldiv+3
  6844     0C25  082B               	movf	??___fldiv+3,w
  6845     0C26  042A               	iorwf	??___fldiv+2,w
  6846     0C27  0429               	iorwf	??___fldiv+1,w
  6847     0C28  0428               	iorwf	??___fldiv,w
  6848     0C29  1903               	skipnz
  6849     0C2A  2C2C               	goto	u318_21
  6850     0C2B  2C2D               	goto	u318_20
  6851     0C2C                     u318_21:
  6852     0C2C  2C30               	goto	i1l790
  6853     0C2D                     u318_20:
  6854     0C2D                     i1l2591:
  6855     0C2D  01B9               	clrf	___fldiv@aexp
  6856     0C2E  0AB9               	incf	___fldiv@aexp,f
  6857     0C2F  2C35               	goto	i1l2595
  6858     0C30                     i1l790:
  6859     0C30  1C24               	btfss	___fldiv@b,0
  6860     0C31  2C33               	goto	u319_21
  6861     0C32  2C34               	goto	u319_20
  6862     0C33                     u319_21:
  6863     0C33  2C35               	goto	i1l2595
  6864     0C34                     u319_20:
  6865     0C34  2C2D               	goto	i1l2591
  6866     0C35                     i1l2595:
  6867     0C35  0839               	movf	___fldiv@aexp,w
  6868     0C36  1903               	btfsc	3,2
  6869     0C37  2C39               	goto	u320_21
  6870     0C38  2C3A               	goto	u320_20
  6871     0C39                     u320_21:
  6872     0C39  2C6B               	goto	i1l2605
  6873     0C3A                     u320_20:
  6874     0C3A                     i1l2597:
  6875     0C3A  3001               	movlw	1
  6876     0C3B  07A4               	addwf	___fldiv@b,f
  6877     0C3C  3000               	movlw	0
  6878     0C3D  1803               	skipnc
  6879     0C3E  3001               	movlw	1
  6880     0C3F  07A5               	addwf	___fldiv@b+1,f
  6881     0C40  3000               	movlw	0
  6882     0C41  1803               	skipnc
  6883     0C42  3001               	movlw	1
  6884     0C43  07A6               	addwf	___fldiv@b+2,f
  6885     0C44  3000               	movlw	0
  6886     0C45  1803               	skipnc
  6887     0C46  3001               	movlw	1
  6888     0C47  07A7               	addwf	___fldiv@b+3,f
  6889     0C48                     i1l2599:
  6890     0C48  1C27               	btfss	___fldiv@b+3,0
  6891     0C49  2C4B               	goto	u321_21
  6892     0C4A  2C4C               	goto	u321_20
  6893     0C4B                     u321_21:
  6894     0C4B  2C6B               	goto	i1l2605
  6895     0C4C                     u321_20:
  6896     0C4C                     i1l2601:
  6897     0C4C  0824               	movf	___fldiv@b,w
  6898     0C4D  00A8               	movwf	??___fldiv
  6899     0C4E  0825               	movf	___fldiv@b+1,w
  6900     0C4F  00A9               	movwf	??___fldiv+1
  6901     0C50  0826               	movf	___fldiv@b+2,w
  6902     0C51  00AA               	movwf	??___fldiv+2
  6903     0C52  0827               	movf	___fldiv@b+3,w
  6904     0C53  00AB               	movwf	??___fldiv+3
  6905     0C54  3001               	movlw	1
  6906     0C55  00AC               	movwf	??___fldiv+4
  6907     0C56                     u322_25:
  6908     0C56  0D2B               	rlf	??___fldiv+3,w
  6909     0C57  0CAB               	rrf	??___fldiv+3,f
  6910     0C58  0CAA               	rrf	??___fldiv+2,f
  6911     0C59  0CA9               	rrf	??___fldiv+1,f
  6912     0C5A  0CA8               	rrf	??___fldiv,f
  6913     0C5B                     u322_20:
  6914     0C5B  0BAC               	decfsz	??___fldiv+4,f
  6915     0C5C  2C56               	goto	u322_25
  6916     0C5D  082B               	movf	??___fldiv+3,w
  6917     0C5E  00A7               	movwf	___fldiv@b+3
  6918     0C5F  082A               	movf	??___fldiv+2,w
  6919     0C60  00A6               	movwf	___fldiv@b+2
  6920     0C61  0829               	movf	??___fldiv+1,w
  6921     0C62  00A5               	movwf	___fldiv@b+1
  6922     0C63  0828               	movf	??___fldiv,w
  6923     0C64  00A4               	movwf	___fldiv@b
  6924     0C65                     i1l2603:
  6925     0C65  3001               	movlw	1
  6926     0C66  07B2               	addwf	___fldiv@new_exp,f
  6927     0C67  1803               	skipnc
  6928     0C68  0AB3               	incf	___fldiv@new_exp+1,f
  6929     0C69  3000               	movlw	0
  6930     0C6A  07B3               	addwf	___fldiv@new_exp+1,f
  6931     0C6B                     i1l2605:
  6932     0C6B  0833               	movf	___fldiv@new_exp+1,w
  6933     0C6C  3A80               	xorlw	128
  6934     0C6D  00FF               	movwf	btemp+1
  6935     0C6E  3080               	movlw	128
  6936     0C6F  027F               	subwf	btemp+1,w
  6937     0C70  1D03               	skipz
  6938     0C71  2C74               	goto	u323_25
  6939     0C72  30FF               	movlw	255
  6940     0C73  0232               	subwf	___fldiv@new_exp,w
  6941     0C74                     u323_25:
  6942     0C74  1C03               	skipc
  6943     0C75  2C77               	goto	u323_21
  6944     0C76  2C78               	goto	u323_20
  6945     0C77                     u323_21:
  6946     0C77  2C86               	goto	i1l2609
  6947     0C78                     u323_20:
  6948     0C78                     i1l2607:
  6949     0C78  30FF               	movlw	255
  6950     0C79  1283               	bcf	3,5	;RP0=0, select bank0
  6951     0C7A  1303               	bcf	3,6	;RP1=0, select bank0
  6952     0C7B  00B2               	movwf	___fldiv@new_exp
  6953     0C7C  3000               	movlw	0
  6954     0C7D  00B3               	movwf	___fldiv@new_exp+1
  6955     0C7E  3000               	movlw	0
  6956     0C7F  00A7               	movwf	___fldiv@b+3
  6957     0C80  3000               	movlw	0
  6958     0C81  00A6               	movwf	___fldiv@b+2
  6959     0C82  3000               	movlw	0
  6960     0C83  00A5               	movwf	___fldiv@b+1
  6961     0C84  3000               	movlw	0
  6962     0C85  00A4               	movwf	___fldiv@b
  6963     0C86                     i1l2609:
  6964     0C86  1283               	bcf	3,5	;RP0=0, select bank0
  6965     0C87  1303               	bcf	3,6	;RP1=0, select bank0
  6966     0C88  0833               	movf	___fldiv@new_exp+1,w
  6967     0C89  3A80               	xorlw	128
  6968     0C8A  00FF               	movwf	btemp+1
  6969     0C8B  3080               	movlw	128
  6970     0C8C  027F               	subwf	btemp+1,w
  6971     0C8D  1D03               	skipz
  6972     0C8E  2C91               	goto	u324_25
  6973     0C8F  3001               	movlw	1
  6974     0C90  0232               	subwf	___fldiv@new_exp,w
  6975     0C91                     u324_25:
  6976     0C91  1803               	skipnc
  6977     0C92  2C94               	goto	u324_21
  6978     0C93  2C95               	goto	u324_20
  6979     0C94                     u324_21:
  6980     0C94  2CA2               	goto	i1l796
  6981     0C95                     u324_20:
  6982     0C95                     i1l2611:
  6983     0C95  1283               	bcf	3,5	;RP0=0, select bank0
  6984     0C96  1303               	bcf	3,6	;RP1=0, select bank0
  6985     0C97  01B2               	clrf	___fldiv@new_exp
  6986     0C98  01B3               	clrf	___fldiv@new_exp+1
  6987     0C99                     i1l2613:
  6988     0C99  3000               	movlw	0
  6989     0C9A  00A7               	movwf	___fldiv@b+3
  6990     0C9B  3000               	movlw	0
  6991     0C9C  00A6               	movwf	___fldiv@b+2
  6992     0C9D  3000               	movlw	0
  6993     0C9E  00A5               	movwf	___fldiv@b+1
  6994     0C9F  3000               	movlw	0
  6995     0CA0  00A4               	movwf	___fldiv@b
  6996     0CA1                     i1l2615:
  6997     0CA1  01B1               	clrf	___fldiv@sign
  6998     0CA2                     i1l796:
  6999     0CA2  1283               	bcf	3,5	;RP0=0, select bank0
  7000     0CA3  1303               	bcf	3,6	;RP1=0, select bank0
  7001     0CA4  0832               	movf	___fldiv@new_exp,w
  7002     0CA5  00B8               	movwf	___fldiv@bexp
  7003     0CA6                     i1l2617:
  7004     0CA6  1C38               	btfss	___fldiv@bexp,0
  7005     0CA7  2CA9               	goto	u325_21
  7006     0CA8  2CAA               	goto	u325_20
  7007     0CA9                     u325_21:
  7008     0CA9  2CAC               	goto	i1l2621
  7009     0CAA                     u325_20:
  7010     0CAA                     i1l2619:
  7011     0CAA  17A6               	bsf	___fldiv@b+2,7
  7012     0CAB  2CB0               	goto	i1l798
  7013     0CAC                     i1l2621:
  7014     0CAC  307F               	movlw	127
  7015     0CAD  00A8               	movwf	??___fldiv
  7016     0CAE  0828               	movf	??___fldiv,w
  7017     0CAF  05A6               	andwf	___fldiv@b+2,f
  7018     0CB0                     i1l798:
  7019     0CB0  0838               	movf	___fldiv@bexp,w
  7020     0CB1  00A8               	movwf	??___fldiv
  7021     0CB2  1003               	clrc
  7022     0CB3  0C28               	rrf	??___fldiv,w
  7023     0CB4  00A7               	movwf	___fldiv@b+3
  7024     0CB5  0831               	movf	___fldiv@sign,w
  7025     0CB6  00A8               	movwf	??___fldiv
  7026     0CB7  0828               	movf	??___fldiv,w
  7027     0CB8  04A7               	iorwf	___fldiv@b+3,f
  7028     0CB9  2B56               	goto	i1l2529
  7029     0CBA                     i1l776:
  7030     0CBA  0008               	return
  7031     0CBB                     __end_of___fldiv:
  7032                           
  7033                           	psect	text23
  7034     0502                     __ptext23:	
  7035 ;; *************** function ___fladd *****************
  7036 ;; Defined at:
  7037 ;;		line 10 in file "C:\Program Files\Microchip\xc8\v2.40\pic\sources\c90\common\sprcadd.c"
  7038 ;; Parameters:    Size  Location     Type
  7039 ;;  b               4   52[BANK0 ] unsigned char 
  7040 ;;  a               4   56[BANK0 ] unsigned char 
  7041 ;; Auto vars:     Size  Location     Type
  7042 ;;  grs             1   71[BANK0 ] unsigned char 
  7043 ;;  bexp            1   70[BANK0 ] unsigned char 
  7044 ;;  aexp            1   69[BANK0 ] unsigned char 
  7045 ;;  signs           1   68[BANK0 ] unsigned char 
  7046 ;; Return value:  Size  Location     Type
  7047 ;;                  4   52[BANK0 ] unsigned char 
  7048 ;; Registers used:
  7049 ;;		wreg, status,2, status,0, btemp+1
  7050 ;; Tracked objects:
  7051 ;;		On entry : 0/0
  7052 ;;		On exit  : 0/0
  7053 ;;		Unchanged: 0/0
  7054 ;; Data sizes:     COMMON   BANK0   BANK1   BANK3   BANK2
  7055 ;;      Params:         0       8       0       0       0
  7056 ;;      Locals:         0       4       0       0       0
  7057 ;;      Temps:          0       8       0       0       0
  7058 ;;      Totals:         0      20       0       0       0
  7059 ;;Total ram usage:       20 bytes
  7060 ;; Hardware stack levels used: 1
  7061 ;; This function calls:
  7062 ;;		Nothing
  7063 ;; This function is called by:
  7064 ;;		_map
  7065 ;; This function uses a non-reentrant model
  7066 ;;
  7067                           
  7068     0502                     ___fladd:	
  7069                           ;psect for function ___fladd
  7070                           
  7071     0502                     i1l2291:	
  7072                           ;incstack = 0
  7073                           ; Regs used in ___fladd: [wreg+status,2+status,0+btemp+1]
  7074                           
  7075     0502  1283               	bcf	3,5	;RP0=0, select bank0
  7076     0503  1303               	bcf	3,6	;RP1=0, select bank0
  7077     0504  0857               	movf	___fladd@b+3,w
  7078     0505  3980               	andlw	128
  7079     0506  00E4               	movwf	___fladd@signs
  7080     0507                     i1l2293:
  7081     0507  0857               	movf	___fladd@b+3,w
  7082     0508  00DC               	movwf	??___fladd
  7083     0509  075C               	addwf	??___fladd,w
  7084     050A  00E6               	movwf	___fladd@bexp
  7085     050B                     i1l2295:
  7086     050B  1FD6               	btfss	___fladd@b+2,7
  7087     050C  2D0E               	goto	u251_21
  7088     050D  2D0F               	goto	u251_20
  7089     050E                     u251_21:
  7090     050E  2D10               	goto	i1l2299
  7091     050F                     u251_20:
  7092     050F                     i1l2297:
  7093     050F  1466               	bsf	___fladd@bexp,0
  7094     0510                     i1l2299:
  7095     0510  0866               	movf	___fladd@bexp,w
  7096     0511  1903               	btfsc	3,2
  7097     0512  2D14               	goto	u252_21
  7098     0513  2D15               	goto	u252_20
  7099     0514                     u252_21:
  7100     0514  2D25               	goto	i1l2309
  7101     0515                     u252_20:
  7102     0515                     i1l2301:
  7103     0515  0A66               	incf	___fladd@bexp,w
  7104     0516  1D03               	btfss	3,2
  7105     0517  2D19               	goto	u253_21
  7106     0518  2D1A               	goto	u253_20
  7107     0519                     u253_21:
  7108     0519  2D22               	goto	i1l2305
  7109     051A                     u253_20:
  7110     051A                     i1l2303:
  7111     051A  3000               	movlw	0
  7112     051B  00D7               	movwf	___fladd@b+3
  7113     051C  3000               	movlw	0
  7114     051D  00D6               	movwf	___fladd@b+2
  7115     051E  3000               	movlw	0
  7116     051F  00D5               	movwf	___fladd@b+1
  7117     0520  3000               	movlw	0
  7118     0521  00D4               	movwf	___fladd@b
  7119     0522                     i1l2305:
  7120     0522  17D6               	bsf	___fladd@b+2,7
  7121     0523                     i1l2307:
  7122     0523  01D7               	clrf	___fladd@b+3
  7123     0524  2D2D               	goto	i1l2311
  7124     0525                     i1l2309:
  7125     0525  3000               	movlw	0
  7126     0526  00D7               	movwf	___fladd@b+3
  7127     0527  3000               	movlw	0
  7128     0528  00D6               	movwf	___fladd@b+2
  7129     0529  3000               	movlw	0
  7130     052A  00D5               	movwf	___fladd@b+1
  7131     052B  3000               	movlw	0
  7132     052C  00D4               	movwf	___fladd@b
  7133     052D                     i1l2311:
  7134     052D  085B               	movf	___fladd@a+3,w
  7135     052E  3980               	andlw	128
  7136     052F  00E5               	movwf	___fladd@aexp
  7137     0530                     i1l2313:
  7138     0530  0865               	movf	___fladd@aexp,w
  7139     0531  0664               	xorwf	___fladd@signs,w
  7140     0532  1903               	skipnz
  7141     0533  2D35               	goto	u254_21
  7142     0534  2D36               	goto	u254_20
  7143     0535                     u254_21:
  7144     0535  2D37               	goto	i1l2317
  7145     0536                     u254_20:
  7146     0536                     i1l2315:
  7147     0536  1764               	bsf	___fladd@signs,6
  7148     0537                     i1l2317:
  7149     0537  085B               	movf	___fladd@a+3,w
  7150     0538  00DC               	movwf	??___fladd
  7151     0539  075C               	addwf	??___fladd,w
  7152     053A  00E5               	movwf	___fladd@aexp
  7153     053B                     i1l2319:
  7154     053B  1FDA               	btfss	___fladd@a+2,7
  7155     053C  2D3E               	goto	u255_21
  7156     053D  2D3F               	goto	u255_20
  7157     053E                     u255_21:
  7158     053E  2D40               	goto	i1l2323
  7159     053F                     u255_20:
  7160     053F                     i1l2321:
  7161     053F  1465               	bsf	___fladd@aexp,0
  7162     0540                     i1l2323:
  7163     0540  0865               	movf	___fladd@aexp,w
  7164     0541  1903               	btfsc	3,2
  7165     0542  2D44               	goto	u256_21
  7166     0543  2D45               	goto	u256_20
  7167     0544                     u256_21:
  7168     0544  2D55               	goto	i1l2333
  7169     0545                     u256_20:
  7170     0545                     i1l2325:
  7171     0545  0A65               	incf	___fladd@aexp,w
  7172     0546  1D03               	btfss	3,2
  7173     0547  2D49               	goto	u257_21
  7174     0548  2D4A               	goto	u257_20
  7175     0549                     u257_21:
  7176     0549  2D52               	goto	i1l2329
  7177     054A                     u257_20:
  7178     054A                     i1l2327:
  7179     054A  3000               	movlw	0
  7180     054B  00DB               	movwf	___fladd@a+3
  7181     054C  3000               	movlw	0
  7182     054D  00DA               	movwf	___fladd@a+2
  7183     054E  3000               	movlw	0
  7184     054F  00D9               	movwf	___fladd@a+1
  7185     0550  3000               	movlw	0
  7186     0551  00D8               	movwf	___fladd@a
  7187     0552                     i1l2329:
  7188     0552  17DA               	bsf	___fladd@a+2,7
  7189     0553                     i1l2331:
  7190     0553  01DB               	clrf	___fladd@a+3
  7191     0554  2D5D               	goto	i1l718
  7192     0555                     i1l2333:
  7193     0555  3000               	movlw	0
  7194     0556  00DB               	movwf	___fladd@a+3
  7195     0557  3000               	movlw	0
  7196     0558  00DA               	movwf	___fladd@a+2
  7197     0559  3000               	movlw	0
  7198     055A  00D9               	movwf	___fladd@a+1
  7199     055B  3000               	movlw	0
  7200     055C  00D8               	movwf	___fladd@a
  7201     055D                     i1l718:
  7202     055D  0866               	movf	___fladd@bexp,w
  7203     055E  0265               	subwf	___fladd@aexp,w
  7204     055F  1803               	skipnc
  7205     0560  2D62               	goto	u258_21
  7206     0561  2D63               	goto	u258_20
  7207     0562                     u258_21:
  7208     0562  2D89               	goto	i1l2369
  7209     0563                     u258_20:
  7210     0563                     i1l2335:
  7211     0563  1F64               	btfss	___fladd@signs,6
  7212     0564  2D66               	goto	u259_21
  7213     0565  2D67               	goto	u259_20
  7214     0566                     u259_21:
  7215     0566  2D6B               	goto	i1l2339
  7216     0567                     u259_20:
  7217     0567                     i1l2337:
  7218     0567  3080               	movlw	128
  7219     0568  00DC               	movwf	??___fladd
  7220     0569  085C               	movf	??___fladd,w
  7221     056A  06E4               	xorwf	___fladd@signs,f
  7222     056B                     i1l2339:
  7223     056B  0866               	movf	___fladd@bexp,w
  7224     056C  00E7               	movwf	___fladd@grs
  7225     056D                     i1l2341:
  7226     056D  0865               	movf	___fladd@aexp,w
  7227     056E  00E6               	movwf	___fladd@bexp
  7228     056F                     i1l2343:
  7229     056F  0867               	movf	___fladd@grs,w
  7230     0570  00E5               	movwf	___fladd@aexp
  7231     0571                     i1l2345:
  7232     0571  0854               	movf	___fladd@b,w
  7233     0572  00E7               	movwf	___fladd@grs
  7234     0573                     i1l2347:
  7235     0573  0858               	movf	___fladd@a,w
  7236     0574  00D4               	movwf	___fladd@b
  7237     0575                     i1l2349:
  7238     0575  0867               	movf	___fladd@grs,w
  7239     0576  00D8               	movwf	___fladd@a
  7240     0577                     i1l2351:
  7241     0577  0855               	movf	___fladd@b+1,w
  7242     0578  00E7               	movwf	___fladd@grs
  7243     0579                     i1l2353:
  7244     0579  0859               	movf	___fladd@a+1,w
  7245     057A  00D5               	movwf	___fladd@b+1
  7246     057B                     i1l2355:
  7247     057B  0867               	movf	___fladd@grs,w
  7248     057C  00D9               	movwf	___fladd@a+1
  7249     057D                     i1l2357:
  7250     057D  0856               	movf	___fladd@b+2,w
  7251     057E  00E7               	movwf	___fladd@grs
  7252     057F                     i1l2359:
  7253     057F  085A               	movf	___fladd@a+2,w
  7254     0580  00D6               	movwf	___fladd@b+2
  7255     0581                     i1l2361:
  7256     0581  0867               	movf	___fladd@grs,w
  7257     0582  00DA               	movwf	___fladd@a+2
  7258     0583                     i1l2363:
  7259     0583  0857               	movf	___fladd@b+3,w
  7260     0584  00E7               	movwf	___fladd@grs
  7261     0585                     i1l2365:
  7262     0585  085B               	movf	___fladd@a+3,w
  7263     0586  00D7               	movwf	___fladd@b+3
  7264     0587                     i1l2367:
  7265     0587  0867               	movf	___fladd@grs,w
  7266     0588  00DB               	movwf	___fladd@a+3
  7267     0589                     i1l2369:
  7268     0589  01E7               	clrf	___fladd@grs
  7269     058A                     i1l2371:
  7270     058A  0865               	movf	___fladd@aexp,w
  7271     058B  00DC               	movwf	??___fladd
  7272     058C  01DD               	clrf	??___fladd+1
  7273     058D  085D               	movf	??___fladd+1,w
  7274     058E  00DF               	movwf	??___fladd+3
  7275     058F  0866               	movf	___fladd@bexp,w
  7276     0590  025C               	subwf	??___fladd,w
  7277     0591  00DE               	movwf	??___fladd+2
  7278     0592  1C03               	skipc
  7279     0593  03DF               	decf	??___fladd+3,f
  7280     0594  085F               	movf	??___fladd+3,w
  7281     0595  3A80               	xorlw	128
  7282     0596  00FF               	movwf	btemp+1
  7283     0597  3080               	movlw	128
  7284     0598  027F               	subwf	btemp+1,w
  7285     0599  1D03               	skipz
  7286     059A  2D9D               	goto	u260_25
  7287     059B  301A               	movlw	26
  7288     059C  025E               	subwf	??___fladd+2,w
  7289     059D                     u260_25:
  7290     059D  1C03               	skipc
  7291     059E  2DA0               	goto	u260_21
  7292     059F  2DA1               	goto	u260_20
  7293     05A0                     u260_21:
  7294     05A0  2DD8               	goto	i1l2387
  7295     05A1                     u260_20:
  7296     05A1                     i1l2373:
  7297     05A1  1283               	bcf	3,5	;RP0=0, select bank0
  7298     05A2  1303               	bcf	3,6	;RP1=0, select bank0
  7299     05A3  0857               	movf	___fladd@b+3,w
  7300     05A4  0456               	iorwf	___fladd@b+2,w
  7301     05A5  0455               	iorwf	___fladd@b+1,w
  7302     05A6  0454               	iorwf	___fladd@b,w
  7303     05A7  1D03               	skipz
  7304     05A8  2DAA               	goto	u261_21
  7305     05A9  2DAC               	goto	u261_20
  7306     05AA                     u261_21:
  7307     05AA  3001               	movlw	1
  7308     05AB  2DAD               	goto	u262_20
  7309     05AC                     u261_20:
  7310     05AC  3000               	movlw	0
  7311     05AD                     u262_20:
  7312     05AD  00E7               	movwf	___fladd@grs
  7313     05AE  3000               	movlw	0
  7314     05AF  00D7               	movwf	___fladd@b+3
  7315     05B0  3000               	movlw	0
  7316     05B1  00D6               	movwf	___fladd@b+2
  7317     05B2  3000               	movlw	0
  7318     05B3  00D5               	movwf	___fladd@b+1
  7319     05B4  3000               	movlw	0
  7320     05B5  00D4               	movwf	___fladd@b
  7321     05B6  0865               	movf	___fladd@aexp,w
  7322     05B7  00E6               	movwf	___fladd@bexp
  7323     05B8  2DE0               	goto	i1l722
  7324     05B9                     i1l724:
  7325     05B9  1C67               	btfss	___fladd@grs,0
  7326     05BA  2DBC               	goto	u263_21
  7327     05BB  2DBD               	goto	u263_20
  7328     05BC                     u263_21:
  7329     05BC  2DC4               	goto	i1l2377
  7330     05BD                     u263_20:
  7331     05BD                     i1l2375:
  7332     05BD  0867               	movf	___fladd@grs,w
  7333     05BE  00DC               	movwf	??___fladd
  7334     05BF  1003               	clrc
  7335     05C0  0C5C               	rrf	??___fladd,w
  7336     05C1  3801               	iorlw	1
  7337     05C2  00E7               	movwf	___fladd@grs
  7338     05C3  2DC6               	goto	i1l2379
  7339     05C4                     i1l2377:
  7340     05C4  1003               	clrc
  7341     05C5  0CE7               	rrf	___fladd@grs,f
  7342     05C6                     i1l2379:
  7343     05C6  1C54               	btfss	___fladd@b,0
  7344     05C7  2DC9               	goto	u264_21
  7345     05C8  2DCA               	goto	u264_20
  7346     05C9                     u264_21:
  7347     05C9  2DCB               	goto	i1l2383
  7348     05CA                     u264_20:
  7349     05CA                     i1l2381:
  7350     05CA  17E7               	bsf	___fladd@grs,7
  7351     05CB                     i1l2383:
  7352     05CB  3001               	movlw	1
  7353     05CC  00DC               	movwf	??___fladd
  7354     05CD                     u265_25:
  7355     05CD  0D57               	rlf	___fladd@b+3,w
  7356     05CE  0CD7               	rrf	___fladd@b+3,f
  7357     05CF  0CD6               	rrf	___fladd@b+2,f
  7358     05D0  0CD5               	rrf	___fladd@b+1,f
  7359     05D1  0CD4               	rrf	___fladd@b,f
  7360     05D2  0BDC               	decfsz	??___fladd& (0+127),f
  7361     05D3  2DCD               	goto	u265_25
  7362     05D4                     i1l2385:
  7363     05D4  3001               	movlw	1
  7364     05D5  00DC               	movwf	??___fladd
  7365     05D6  085C               	movf	??___fladd,w
  7366     05D7  07E6               	addwf	___fladd@bexp,f
  7367     05D8                     i1l2387:
  7368     05D8  1283               	bcf	3,5	;RP0=0, select bank0
  7369     05D9  1303               	bcf	3,6	;RP1=0, select bank0
  7370     05DA  0865               	movf	___fladd@aexp,w
  7371     05DB  0266               	subwf	___fladd@bexp,w
  7372     05DC  1C03               	skipc
  7373     05DD  2DDF               	goto	u266_21
  7374     05DE  2DE0               	goto	u266_20
  7375     05DF                     u266_21:
  7376     05DF  2DB9               	goto	i1l724
  7377     05E0                     u266_20:
  7378     05E0                     i1l722:
  7379     05E0  1B64               	btfsc	___fladd@signs,6
  7380     05E1  2DE3               	goto	u267_21
  7381     05E2  2DE4               	goto	u267_20
  7382     05E3                     u267_21:
  7383     05E3  2E2D               	goto	i1l2413
  7384     05E4                     u267_20:
  7385     05E4                     i1l2389:
  7386     05E4  0866               	movf	___fladd@bexp,w
  7387     05E5  1D03               	btfss	3,2
  7388     05E6  2DE8               	goto	u268_21
  7389     05E7  2DE9               	goto	u268_20
  7390     05E8                     u268_21:
  7391     05E8  2DF2               	goto	i1l2395
  7392     05E9                     u268_20:
  7393     05E9                     i1l2391:
  7394     05E9  3000               	movlw	0
  7395     05EA  00D7               	movwf	?___fladd+3
  7396     05EB  3000               	movlw	0
  7397     05EC  00D6               	movwf	?___fladd+2
  7398     05ED  3000               	movlw	0
  7399     05EE  00D5               	movwf	?___fladd+1
  7400     05EF  3000               	movlw	0
  7401     05F0  00D4               	movwf	?___fladd
  7402     05F1  2F59               	goto	i1l731
  7403     05F2                     i1l2395:
  7404     05F2  0858               	movf	___fladd@a,w
  7405     05F3  07D4               	addwf	___fladd@b,f
  7406     05F4  0859               	movf	___fladd@a+1,w
  7407     05F5  1103               	clrz
  7408     05F6  1803               	skipnc
  7409     05F7  3E01               	addlw	1
  7410     05F8  1903               	skipnz
  7411     05F9  2DFB               	goto	u269_21
  7412     05FA  07D5               	addwf	___fladd@b+1,f
  7413     05FB                     u269_21:
  7414     05FB  085A               	movf	___fladd@a+2,w
  7415     05FC  1103               	clrz
  7416     05FD  1803               	skipnc
  7417     05FE  3E01               	addlw	1
  7418     05FF  1903               	skipnz
  7419     0600  2E02               	goto	u269_22
  7420     0601  07D6               	addwf	___fladd@b+2,f
  7421     0602                     u269_22:
  7422     0602  085B               	movf	___fladd@a+3,w
  7423     0603  1103               	clrz
  7424     0604  1803               	skipnc
  7425     0605  3E01               	addlw	1
  7426     0606  1903               	skipnz
  7427     0607  2E09               	goto	u269_23
  7428     0608  07D7               	addwf	___fladd@b+3,f
  7429     0609                     u269_23:
  7430     0609                     i1l2397:
  7431     0609  1C57               	btfss	___fladd@b+3,0
  7432     060A  2E0C               	goto	u270_21
  7433     060B  2E0D               	goto	u270_20
  7434     060C                     u270_21:
  7435     060C  2EE1               	goto	i1l2447
  7436     060D                     u270_20:
  7437     060D                     i1l2399:
  7438     060D  1C67               	btfss	___fladd@grs,0
  7439     060E  2E10               	goto	u271_21
  7440     060F  2E11               	goto	u271_20
  7441     0610                     u271_21:
  7442     0610  2E18               	goto	i1l2403
  7443     0611                     u271_20:
  7444     0611                     i1l2401:
  7445     0611  0867               	movf	___fladd@grs,w
  7446     0612  00DC               	movwf	??___fladd
  7447     0613  1003               	clrc
  7448     0614  0C5C               	rrf	??___fladd,w
  7449     0615  3801               	iorlw	1
  7450     0616  00E7               	movwf	___fladd@grs
  7451     0617  2E1A               	goto	i1l2405
  7452     0618                     i1l2403:
  7453     0618  1003               	clrc
  7454     0619  0CE7               	rrf	___fladd@grs,f
  7455     061A                     i1l2405:
  7456     061A  1C54               	btfss	___fladd@b,0
  7457     061B  2E1D               	goto	u272_21
  7458     061C  2E1E               	goto	u272_20
  7459     061D                     u272_21:
  7460     061D  2E1F               	goto	i1l2409
  7461     061E                     u272_20:
  7462     061E                     i1l2407:
  7463     061E  17E7               	bsf	___fladd@grs,7
  7464     061F                     i1l2409:
  7465     061F  3001               	movlw	1
  7466     0620  00DC               	movwf	??___fladd
  7467     0621                     u273_25:
  7468     0621  0D57               	rlf	___fladd@b+3,w
  7469     0622  0CD7               	rrf	___fladd@b+3,f
  7470     0623  0CD6               	rrf	___fladd@b+2,f
  7471     0624  0CD5               	rrf	___fladd@b+1,f
  7472     0625  0CD4               	rrf	___fladd@b,f
  7473     0626  0BDC               	decfsz	??___fladd& (0+127),f
  7474     0627  2E21               	goto	u273_25
  7475     0628                     i1l2411:
  7476     0628  3001               	movlw	1
  7477     0629  00DC               	movwf	??___fladd
  7478     062A  085C               	movf	??___fladd,w
  7479     062B  07E6               	addwf	___fladd@bexp,f
  7480     062C  2EE1               	goto	i1l2447
  7481     062D                     i1l2413:
  7482     062D  0857               	movf	___fladd@b+3,w
  7483     062E  3A80               	xorlw	128
  7484     062F  00FF               	movwf	btemp+1
  7485     0630  085B               	movf	___fladd@a+3,w
  7486     0631  3A80               	xorlw	128
  7487     0632  027F               	subwf	btemp+1,w
  7488     0633  1D03               	skipz
  7489     0634  2E3F               	goto	u274_23
  7490     0635  085A               	movf	___fladd@a+2,w
  7491     0636  0256               	subwf	___fladd@b+2,w
  7492     0637  1D03               	skipz
  7493     0638  2E3F               	goto	u274_23
  7494     0639  0859               	movf	___fladd@a+1,w
  7495     063A  0255               	subwf	___fladd@b+1,w
  7496     063B  1D03               	skipz
  7497     063C  2E3F               	goto	u274_23
  7498     063D  0858               	movf	___fladd@a,w
  7499     063E  0254               	subwf	___fladd@b,w
  7500     063F                     u274_23:
  7501     063F  1803               	skipnc
  7502     0640  2E42               	goto	u274_21
  7503     0641  2E43               	goto	u274_20
  7504     0642                     u274_21:
  7505     0642  2E9B               	goto	i1l2423
  7506     0643                     u274_20:
  7507     0643                     i1l2415:
  7508     0643  30FF               	movlw	255
  7509     0644  00DC               	movwf	??___fladd
  7510     0645  30FF               	movlw	255
  7511     0646  00DD               	movwf	??___fladd+1
  7512     0647  30FF               	movlw	255
  7513     0648  00DE               	movwf	??___fladd+2
  7514     0649  30FF               	movlw	255
  7515     064A  00DF               	movwf	??___fladd+3
  7516     064B  0858               	movf	___fladd@a,w
  7517     064C  00E0               	movwf	??___fladd+4
  7518     064D  0859               	movf	___fladd@a+1,w
  7519     064E  00E1               	movwf	??___fladd+5
  7520     064F  085A               	movf	___fladd@a+2,w
  7521     0650  00E2               	movwf	??___fladd+6
  7522     0651  085B               	movf	___fladd@a+3,w
  7523     0652  00E3               	movwf	??___fladd+7
  7524     0653  0854               	movf	___fladd@b,w
  7525     0654  02E0               	subwf	??___fladd+4,f
  7526     0655  0855               	movf	___fladd@b+1,w
  7527     0656  1C03               	skipc
  7528     0657  0F55               	incfsz	___fladd@b+1,w
  7529     0658  2E5A               	goto	u275_21
  7530     0659  2E5B               	goto	u275_22
  7531     065A                     u275_21:
  7532     065A  02E1               	subwf	??___fladd+5,f
  7533     065B                     u275_22:
  7534     065B  0856               	movf	___fladd@b+2,w
  7535     065C  1C03               	skipc
  7536     065D  0F56               	incfsz	___fladd@b+2,w
  7537     065E  2E60               	goto	u275_23
  7538     065F  2E61               	goto	u275_24
  7539     0660                     u275_23:
  7540     0660  02E2               	subwf	??___fladd+6,f
  7541     0661                     u275_24:
  7542     0661  0857               	movf	___fladd@b+3,w
  7543     0662  1C03               	skipc
  7544     0663  0F57               	incfsz	___fladd@b+3,w
  7545     0664  2E66               	goto	u275_25
  7546     0665  2E67               	goto	u275_26
  7547     0666                     u275_25:
  7548     0666  02E3               	subwf	??___fladd+7,f
  7549     0667                     u275_26:
  7550     0667  0860               	movf	??___fladd+4,w
  7551     0668  07DC               	addwf	??___fladd,f
  7552     0669  0861               	movf	??___fladd+5,w
  7553     066A  1803               	skipnc
  7554     066B  0F61               	incfsz	??___fladd+5,w
  7555     066C  2E6E               	goto	u276_20
  7556     066D  2E6F               	goto	u276_21
  7557     066E                     u276_20:
  7558     066E  07DD               	addwf	??___fladd+1,f
  7559     066F                     u276_21:
  7560     066F  0862               	movf	??___fladd+6,w
  7561     0670  1803               	skipnc
  7562     0671  0F62               	incfsz	??___fladd+6,w
  7563     0672  2E74               	goto	u276_22
  7564     0673  2E75               	goto	u276_23
  7565     0674                     u276_22:
  7566     0674  07DE               	addwf	??___fladd+2,f
  7567     0675                     u276_23:
  7568     0675  0863               	movf	??___fladd+7,w
  7569     0676  1803               	skipnc
  7570     0677  0A63               	incf	??___fladd+7,w
  7571     0678  07DF               	addwf	??___fladd+3,f
  7572     0679  085F               	movf	??___fladd+3,w
  7573     067A  00D7               	movwf	___fladd@b+3
  7574     067B  085E               	movf	??___fladd+2,w
  7575     067C  00D6               	movwf	___fladd@b+2
  7576     067D  085D               	movf	??___fladd+1,w
  7577     067E  00D5               	movwf	___fladd@b+1
  7578     067F  085C               	movf	??___fladd,w
  7579     0680  00D4               	movwf	___fladd@b
  7580     0681                     i1l2417:
  7581     0681  3080               	movlw	128
  7582     0682  00DC               	movwf	??___fladd
  7583     0683  085C               	movf	??___fladd,w
  7584     0684  06E4               	xorwf	___fladd@signs,f
  7585     0685  09E7               	comf	___fladd@grs,f
  7586     0686  0AE7               	incf	___fladd@grs,f
  7587     0687                     i1l2419:
  7588     0687  0867               	movf	___fladd@grs,w
  7589     0688  1D03               	btfss	3,2
  7590     0689  2E8B               	goto	u277_21
  7591     068A  2E8C               	goto	u277_20
  7592     068B                     u277_21:
  7593     068B  2EA9               	goto	i1l739
  7594     068C                     u277_20:
  7595     068C                     i1l2421:
  7596     068C  3001               	movlw	1
  7597     068D  07D4               	addwf	___fladd@b,f
  7598     068E  3000               	movlw	0
  7599     068F  1803               	skipnc
  7600     0690  3001               	movlw	1
  7601     0691  07D5               	addwf	___fladd@b+1,f
  7602     0692  3000               	movlw	0
  7603     0693  1803               	skipnc
  7604     0694  3001               	movlw	1
  7605     0695  07D6               	addwf	___fladd@b+2,f
  7606     0696  3000               	movlw	0
  7607     0697  1803               	skipnc
  7608     0698  3001               	movlw	1
  7609     0699  07D7               	addwf	___fladd@b+3,f
  7610     069A  2EA9               	goto	i1l739
  7611     069B                     i1l2423:
  7612     069B  0858               	movf	___fladd@a,w
  7613     069C  02D4               	subwf	___fladd@b,f
  7614     069D  0859               	movf	___fladd@a+1,w
  7615     069E  1C03               	skipc
  7616     069F  0F59               	incfsz	___fladd@a+1,w
  7617     06A0  02D5               	subwf	___fladd@b+1,f
  7618     06A1  085A               	movf	___fladd@a+2,w
  7619     06A2  1C03               	skipc
  7620     06A3  0F5A               	incfsz	___fladd@a+2,w
  7621     06A4  02D6               	subwf	___fladd@b+2,f
  7622     06A5  085B               	movf	___fladd@a+3,w
  7623     06A6  1C03               	skipc
  7624     06A7  0F5B               	incfsz	___fladd@a+3,w
  7625     06A8  02D7               	subwf	___fladd@b+3,f
  7626     06A9                     i1l739:
  7627     06A9  0857               	movf	___fladd@b+3,w
  7628     06AA  0456               	iorwf	___fladd@b+2,w
  7629     06AB  0455               	iorwf	___fladd@b+1,w
  7630     06AC  0454               	iorwf	___fladd@b,w
  7631     06AD  1D03               	skipz
  7632     06AE  2EB0               	goto	u278_21
  7633     06AF  2EB1               	goto	u278_20
  7634     06B0                     u278_21:
  7635     06B0  2EDD               	goto	i1l2445
  7636     06B1                     u278_20:
  7637     06B1                     i1l2425:
  7638     06B1  0867               	movf	___fladd@grs,w
  7639     06B2  1D03               	btfss	3,2
  7640     06B3  2EB5               	goto	u279_21
  7641     06B4  2EB6               	goto	u279_20
  7642     06B5                     u279_21:
  7643     06B5  2EDD               	goto	i1l2445
  7644     06B6                     u279_20:
  7645     06B6                     i1l2427:
  7646     06B6  3000               	movlw	0
  7647     06B7  00D7               	movwf	?___fladd+3
  7648     06B8  3000               	movlw	0
  7649     06B9  00D6               	movwf	?___fladd+2
  7650     06BA  3000               	movlw	0
  7651     06BB  00D5               	movwf	?___fladd+1
  7652     06BC  3000               	movlw	0
  7653     06BD  00D4               	movwf	?___fladd
  7654     06BE  2F59               	goto	i1l731
  7655     06BF                     i1l2431:
  7656     06BF  3001               	movlw	1
  7657     06C0  00DC               	movwf	??___fladd
  7658     06C1                     u280_25:
  7659     06C1  1003               	clrc
  7660     06C2  0DD4               	rlf	___fladd@b,f
  7661     06C3  0DD5               	rlf	___fladd@b+1,f
  7662     06C4  0DD6               	rlf	___fladd@b+2,f
  7663     06C5  0DD7               	rlf	___fladd@b+3,f
  7664     06C6  0BDC               	decfsz	??___fladd,f
  7665     06C7  2EC1               	goto	u280_25
  7666     06C8                     i1l2433:
  7667     06C8  1FE7               	btfss	___fladd@grs,7
  7668     06C9  2ECB               	goto	u281_21
  7669     06CA  2ECC               	goto	u281_20
  7670     06CB                     u281_21:
  7671     06CB  2ECD               	goto	i1l743
  7672     06CC                     u281_20:
  7673     06CC                     i1l2435:
  7674     06CC  1454               	bsf	___fladd@b,0
  7675     06CD                     i1l743:
  7676     06CD  1C67               	btfss	___fladd@grs,0
  7677     06CE  2ED0               	goto	u282_21
  7678     06CF  2ED1               	goto	u282_20
  7679     06D0                     u282_21:
  7680     06D0  2ED4               	goto	i1l2439
  7681     06D1                     u282_20:
  7682     06D1                     i1l2437:
  7683     06D1  1403               	setc
  7684     06D2  0DE7               	rlf	___fladd@grs,f
  7685     06D3  2ED6               	goto	i1l2441
  7686     06D4                     i1l2439:
  7687     06D4  1003               	clrc
  7688     06D5  0DE7               	rlf	___fladd@grs,f
  7689     06D6                     i1l2441:
  7690     06D6  0866               	movf	___fladd@bexp,w
  7691     06D7  1903               	btfsc	3,2
  7692     06D8  2EDA               	goto	u283_21
  7693     06D9  2EDB               	goto	u283_20
  7694     06DA                     u283_21:
  7695     06DA  2EDD               	goto	i1l2445
  7696     06DB                     u283_20:
  7697     06DB                     i1l2443:
  7698     06DB  3001               	movlw	1
  7699     06DC  02E6               	subwf	___fladd@bexp,f
  7700     06DD                     i1l2445:
  7701     06DD  1FD6               	btfss	___fladd@b+2,7
  7702     06DE  2EE0               	goto	u284_21
  7703     06DF  2EE1               	goto	u284_20
  7704     06E0                     u284_21:
  7705     06E0  2EBF               	goto	i1l2431
  7706     06E1                     u284_20:
  7707     06E1                     i1l2447:
  7708     06E1  01E5               	clrf	___fladd@aexp
  7709     06E2                     i1l2449:
  7710     06E2  1FE7               	btfss	___fladd@grs,7
  7711     06E3  2EE5               	goto	u285_21
  7712     06E4  2EE6               	goto	u285_20
  7713     06E5                     u285_21:
  7714     06E5  2EF4               	goto	i1l2457
  7715     06E6                     u285_20:
  7716     06E6                     i1l2451:
  7717     06E6  0867               	movf	___fladd@grs,w
  7718     06E7  397F               	andlw	127
  7719     06E8  1903               	btfsc	3,2
  7720     06E9  2EEB               	goto	u286_21
  7721     06EA  2EEC               	goto	u286_20
  7722     06EB                     u286_21:
  7723     06EB  2EEF               	goto	i1l749
  7724     06EC                     u286_20:
  7725     06EC                     i1l2453:
  7726     06EC  01E5               	clrf	___fladd@aexp
  7727     06ED  0AE5               	incf	___fladd@aexp,f
  7728     06EE  2EF4               	goto	i1l2457
  7729     06EF                     i1l749:
  7730     06EF  1C54               	btfss	___fladd@b,0
  7731     06F0  2EF2               	goto	u287_21
  7732     06F1  2EF3               	goto	u287_20
  7733     06F2                     u287_21:
  7734     06F2  2EF4               	goto	i1l2457
  7735     06F3                     u287_20:
  7736     06F3  2EEC               	goto	i1l2453
  7737     06F4                     i1l2457:
  7738     06F4  0865               	movf	___fladd@aexp,w
  7739     06F5  1903               	btfsc	3,2
  7740     06F6  2EF8               	goto	u288_21
  7741     06F7  2EF9               	goto	u288_20
  7742     06F8                     u288_21:
  7743     06F8  2F2D               	goto	i1l752
  7744     06F9                     u288_20:
  7745     06F9                     i1l2459:
  7746     06F9  3001               	movlw	1
  7747     06FA  07D4               	addwf	___fladd@b,f
  7748     06FB  3000               	movlw	0
  7749     06FC  1803               	skipnc
  7750     06FD  3001               	movlw	1
  7751     06FE  07D5               	addwf	___fladd@b+1,f
  7752     06FF  3000               	movlw	0
  7753     0700  1803               	skipnc
  7754     0701  3001               	movlw	1
  7755     0702  07D6               	addwf	___fladd@b+2,f
  7756     0703  3000               	movlw	0
  7757     0704  1803               	skipnc
  7758     0705  3001               	movlw	1
  7759     0706  07D7               	addwf	___fladd@b+3,f
  7760     0707                     i1l2461:
  7761     0707  1C57               	btfss	___fladd@b+3,0
  7762     0708  2F0A               	goto	u289_21
  7763     0709  2F0B               	goto	u289_20
  7764     070A                     u289_21:
  7765     070A  2F2D               	goto	i1l752
  7766     070B                     u289_20:
  7767     070B                     i1l2463:
  7768     070B  0854               	movf	___fladd@b,w
  7769     070C  00DC               	movwf	??___fladd
  7770     070D  0855               	movf	___fladd@b+1,w
  7771     070E  00DD               	movwf	??___fladd+1
  7772     070F  0856               	movf	___fladd@b+2,w
  7773     0710  00DE               	movwf	??___fladd+2
  7774     0711  0857               	movf	___fladd@b+3,w
  7775     0712  00DF               	movwf	??___fladd+3
  7776     0713  3001               	movlw	1
  7777     0714  00E0               	movwf	??___fladd+4
  7778     0715                     u290_25:
  7779     0715  0D5F               	rlf	??___fladd+3,w
  7780     0716  0CDF               	rrf	??___fladd+3,f
  7781     0717  0CDE               	rrf	??___fladd+2,f
  7782     0718  0CDD               	rrf	??___fladd+1,f
  7783     0719  0CDC               	rrf	??___fladd,f
  7784     071A                     u290_20:
  7785     071A  0BE0               	decfsz	??___fladd+4,f
  7786     071B  2F15               	goto	u290_25
  7787     071C  085F               	movf	??___fladd+3,w
  7788     071D  00D7               	movwf	___fladd@b+3
  7789     071E  085E               	movf	??___fladd+2,w
  7790     071F  00D6               	movwf	___fladd@b+2
  7791     0720  085D               	movf	??___fladd+1,w
  7792     0721  00D5               	movwf	___fladd@b+1
  7793     0722  085C               	movf	??___fladd,w
  7794     0723  00D4               	movwf	___fladd@b
  7795     0724  0A66               	incf	___fladd@bexp,w
  7796     0725  1903               	btfsc	3,2
  7797     0726  2F28               	goto	u291_21
  7798     0727  2F29               	goto	u291_20
  7799     0728                     u291_21:
  7800     0728  2F2D               	goto	i1l752
  7801     0729                     u291_20:
  7802     0729                     i1l2465:
  7803     0729  3001               	movlw	1
  7804     072A  00DC               	movwf	??___fladd
  7805     072B  085C               	movf	??___fladd,w
  7806     072C  07E6               	addwf	___fladd@bexp,f
  7807     072D                     i1l752:
  7808     072D  0A66               	incf	___fladd@bexp,w
  7809     072E  1903               	btfsc	3,2
  7810     072F  2F31               	goto	u292_21
  7811     0730  2F32               	goto	u292_20
  7812     0731                     u292_21:
  7813     0731  2F37               	goto	i1l2469
  7814     0732                     u292_20:
  7815     0732                     i1l2467:
  7816     0732  0866               	movf	___fladd@bexp,w
  7817     0733  1D03               	btfss	3,2
  7818     0734  2F36               	goto	u293_21
  7819     0735  2F37               	goto	u293_20
  7820     0736                     u293_21:
  7821     0736  2F45               	goto	i1l2475
  7822     0737                     u293_20:
  7823     0737                     i1l2469:
  7824     0737  3000               	movlw	0
  7825     0738  00D7               	movwf	___fladd@b+3
  7826     0739  3000               	movlw	0
  7827     073A  00D6               	movwf	___fladd@b+2
  7828     073B  3000               	movlw	0
  7829     073C  00D5               	movwf	___fladd@b+1
  7830     073D  3000               	movlw	0
  7831     073E  00D4               	movwf	___fladd@b
  7832     073F                     i1l2471:
  7833     073F  0866               	movf	___fladd@bexp,w
  7834     0740  1D03               	btfss	3,2
  7835     0741  2F43               	goto	u294_21
  7836     0742  2F44               	goto	u294_20
  7837     0743                     u294_21:
  7838     0743  2F45               	goto	i1l2475
  7839     0744                     u294_20:
  7840     0744                     i1l2473:
  7841     0744  01E4               	clrf	___fladd@signs
  7842     0745                     i1l2475:
  7843     0745  1C66               	btfss	___fladd@bexp,0
  7844     0746  2F48               	goto	u295_21
  7845     0747  2F49               	goto	u295_20
  7846     0748                     u295_21:
  7847     0748  2F4B               	goto	i1l2479
  7848     0749                     u295_20:
  7849     0749                     i1l2477:
  7850     0749  17D6               	bsf	___fladd@b+2,7
  7851     074A  2F4F               	goto	i1l760
  7852     074B                     i1l2479:
  7853     074B  307F               	movlw	127
  7854     074C  00DC               	movwf	??___fladd
  7855     074D  085C               	movf	??___fladd,w
  7856     074E  05D6               	andwf	___fladd@b+2,f
  7857     074F                     i1l760:
  7858     074F  0866               	movf	___fladd@bexp,w
  7859     0750  00DC               	movwf	??___fladd
  7860     0751  1003               	clrc
  7861     0752  0C5C               	rrf	??___fladd,w
  7862     0753  00D7               	movwf	___fladd@b+3
  7863     0754                     i1l2481:
  7864     0754  1FE4               	btfss	___fladd@signs,7
  7865     0755  2F57               	goto	u296_21
  7866     0756  2F58               	goto	u296_20
  7867     0757                     u296_21:
  7868     0757  2F59               	goto	i1l761
  7869     0758                     u296_20:
  7870     0758                     i1l2483:
  7871     0758  17D7               	bsf	___fladd@b+3,7
  7872     0759                     i1l761:
  7873     0759                     i1l731:
  7874     0759  0008               	return
  7875     075A                     __end_of___fladd:
  7876                           
  7877                           	psect	text24
  7878     140A                     __ptext24:	
  7879 ;; *************** function _itoa *****************
  7880 ;; Defined at:
  7881 ;;		line 4 in file "C:\Program Files\Microchip\xc8\v2.40\pic\sources\c90\common\itoa.c"
  7882 ;; Parameters:    Size  Location     Type
  7883 ;;  buf             1    wreg     PTR unsigned char 
  7884 ;;		 -> isr@numStr(12), 
  7885 ;;  val             2    4[BANK0 ] int 
  7886 ;;  base            2    6[BANK0 ] int 
  7887 ;; Auto vars:     Size  Location     Type
  7888 ;;  buf             1    8[BANK0 ] PTR unsigned char 
  7889 ;;		 -> isr@numStr(12), 
  7890 ;;  cp              1    0        PTR unsigned char 
  7891 ;;		 -> isr@numStr(12), 
  7892 ;; Return value:  Size  Location     Type
  7893 ;;                  1    wreg      PTR unsigned char 
  7894 ;; Registers used:
  7895 ;;		wreg, fsr0l, fsr0h, status,2, status,0, pclath, cstack
  7896 ;; Tracked objects:
  7897 ;;		On entry : 0/0
  7898 ;;		On exit  : 0/0
  7899 ;;		Unchanged: 0/0
  7900 ;; Data sizes:     COMMON   BANK0   BANK1   BANK3   BANK2
  7901 ;;      Params:         0       4       0       0       0
  7902 ;;      Locals:         0       1       0       0       0
  7903 ;;      Temps:          1       0       0       0       0
  7904 ;;      Totals:         1       5       0       0       0
  7905 ;;Total ram usage:        6 bytes
  7906 ;; Hardware stack levels used: 1
  7907 ;; Hardware stack levels required when called: 2
  7908 ;; This function calls:
  7909 ;;		_utoa
  7910 ;; This function is called by:
  7911 ;;		_isr
  7912 ;; This function uses a non-reentrant model
  7913 ;;
  7914                           
  7915     140A                     _itoa:	
  7916                           ;psect for function _itoa
  7917                           
  7918                           
  7919                           ;incstack = 0
  7920                           ; Regs used in _itoa: [wreg-fsr0h+status,2+status,0+pclath+cstack]
  7921                           ;itoa@buf stored from wreg
  7922     140A  1283               	bcf	3,5	;RP0=0, select bank0
  7923     140B  1303               	bcf	3,6	;RP1=0, select bank0
  7924     140C  00A8               	movwf	itoa@buf
  7925     140D                     i1l2915:
  7926     140D                     i1l2917:
  7927     140D  1FA5               	btfss	itoa@val+1,7
  7928     140E  2C10               	goto	u394_21
  7929     140F  2C11               	goto	u394_20
  7930     1410                     u394_21:
  7931     1410  2C1F               	goto	i1l2925
  7932     1411                     u394_20:
  7933     1411                     i1l2919:
  7934     1411  0828               	movf	itoa@buf,w
  7935     1412  0084               	movwf	4
  7936     1413  302D               	movlw	45
  7937     1414  1783               	bsf	3,7	;select IRP bank2
  7938     1415  0080               	movwf	0
  7939     1416                     i1l2921:
  7940     1416  3001               	movlw	1
  7941     1417  00FD               	movwf	??_itoa
  7942     1418  087D               	movf	??_itoa,w
  7943     1419  07A8               	addwf	itoa@buf,f
  7944     141A                     i1l2923:
  7945     141A  09A4               	comf	itoa@val,f
  7946     141B  09A5               	comf	itoa@val+1,f
  7947     141C  0AA4               	incf	itoa@val,f
  7948     141D  1903               	skipnz
  7949     141E  0AA5               	incf	itoa@val+1,f
  7950     141F                     i1l2925:
  7951     141F  0825               	movf	itoa@val+1,w
  7952     1420  00F9               	movwf	utoa@val+1
  7953     1421  0824               	movf	itoa@val,w
  7954     1422  00F8               	movwf	utoa@val
  7955     1423  0827               	movf	itoa@base+1,w
  7956     1424  00FB               	movwf	utoa@base+1
  7957     1425  0826               	movf	itoa@base,w
  7958     1426  00FA               	movwf	utoa@base
  7959     1427  0828               	movf	itoa@buf,w
  7960     1428  160A  118A  2717  160A  118A  	fcall	_utoa
  7961     142D                     i1l899:
  7962     142D  0008               	return
  7963     142E                     __end_of_itoa:
  7964                           
  7965                           	psect	text25
  7966     1717                     __ptext25:	
  7967 ;; *************** function _utoa *****************
  7968 ;; Defined at:
  7969 ;;		line 17 in file "C:\Program Files\Microchip\xc8\v2.40\pic\sources\c90\common\itoa.c"
  7970 ;; Parameters:    Size  Location     Type
  7971 ;;  buf             1    wreg     PTR unsigned char 
  7972 ;;		 -> isr@numStr(12), 
  7973 ;;  val             2    8[COMMON] unsigned int 
  7974 ;;  base            2   10[COMMON] int 
  7975 ;; Auto vars:     Size  Location     Type
  7976 ;;  buf             1    3[BANK0 ] PTR unsigned char 
  7977 ;;		 -> isr@numStr(12), 
  7978 ;;  v               2    0[BANK0 ] unsigned int 
  7979 ;;  c               1    2[BANK0 ] unsigned char 
  7980 ;; Return value:  Size  Location     Type
  7981 ;;                  1    wreg      PTR unsigned char 
  7982 ;; Registers used:
  7983 ;;		wreg, fsr0l, fsr0h, status,2, status,0, pclath, cstack
  7984 ;; Tracked objects:
  7985 ;;		On entry : 0/0
  7986 ;;		On exit  : 0/0
  7987 ;;		Unchanged: 0/0
  7988 ;; Data sizes:     COMMON   BANK0   BANK1   BANK3   BANK2
  7989 ;;      Params:         4       0       0       0       0
  7990 ;;      Locals:         0       4       0       0       0
  7991 ;;      Temps:          1       0       0       0       0
  7992 ;;      Totals:         5       4       0       0       0
  7993 ;;Total ram usage:        9 bytes
  7994 ;; Hardware stack levels used: 1
  7995 ;; Hardware stack levels required when called: 1
  7996 ;; This function calls:
  7997 ;;		___lwdiv
  7998 ;;		___lwmod
  7999 ;; This function is called by:
  8000 ;;		_itoa
  8001 ;; This function uses a non-reentrant model
  8002 ;;
  8003                           
  8004     1717                     _utoa:	
  8005                           ;psect for function _utoa
  8006                           
  8007                           
  8008                           ;incstack = 0
  8009                           ; Regs used in _utoa: [wreg-fsr0h+status,2+status,0+pclath+cstack]
  8010                           ;utoa@buf stored from wreg
  8011     1717  1283               	bcf	3,5	;RP0=0, select bank0
  8012     1718  1303               	bcf	3,6	;RP1=0, select bank0
  8013     1719  00A3               	movwf	utoa@buf
  8014     171A                     i1l2811:
  8015     171A  0879               	movf	utoa@val+1,w
  8016     171B  00A1               	movwf	utoa@v+1
  8017     171C  0878               	movf	utoa@val,w
  8018     171D  00A0               	movwf	utoa@v
  8019     171E                     i1l2813:
  8020     171E  087B               	movf	utoa@base+1,w
  8021     171F  00F1               	movwf	___lwdiv@divisor+1
  8022     1720  087A               	movf	utoa@base,w
  8023     1721  00F0               	movwf	___lwdiv@divisor
  8024     1722  0821               	movf	utoa@v+1,w
  8025     1723  00F3               	movwf	___lwdiv@dividend+1
  8026     1724  0820               	movf	utoa@v,w
  8027     1725  00F2               	movwf	___lwdiv@dividend
  8028     1726  160A  118A  25B6  160A  118A  	fcall	___lwdiv
  8029     172B  0871               	movf	?___lwdiv+1,w
  8030     172C  1283               	bcf	3,5	;RP0=0, select bank0
  8031     172D  1303               	bcf	3,6	;RP1=0, select bank0
  8032     172E  00A1               	movwf	utoa@v+1
  8033     172F  0870               	movf	?___lwdiv,w
  8034     1730  00A0               	movwf	utoa@v
  8035     1731                     i1l2815:
  8036     1731  3001               	movlw	1
  8037     1732  00FC               	movwf	??_utoa
  8038     1733  087C               	movf	??_utoa,w
  8039     1734  07A3               	addwf	utoa@buf,f
  8040     1735                     i1l2817:
  8041     1735  0820               	movf	utoa@v,w
  8042     1736  0421               	iorwf	utoa@v+1,w
  8043     1737  1D03               	btfss	3,2
  8044     1738  2F3A               	goto	u377_21
  8045     1739  2F3B               	goto	u377_20
  8046     173A                     u377_21:
  8047     173A  2F1E               	goto	i1l2813
  8048     173B                     u377_20:
  8049     173B                     i1l2819:
  8050     173B  0823               	movf	utoa@buf,w
  8051     173C  0084               	movwf	4
  8052     173D  1783               	bsf	3,7	;select IRP bank2
  8053     173E  0180               	clrf	0
  8054     173F                     i1l2821:
  8055     173F  3001               	movlw	1
  8056     1740  02A3               	subwf	utoa@buf,f
  8057     1741                     i1l2823:
  8058     1741  087B               	movf	utoa@base+1,w
  8059     1742  00F1               	movwf	___lwmod@divisor+1
  8060     1743  087A               	movf	utoa@base,w
  8061     1744  00F0               	movwf	___lwmod@divisor
  8062     1745  0879               	movf	utoa@val+1,w
  8063     1746  00F3               	movwf	___lwmod@dividend+1
  8064     1747  0878               	movf	utoa@val,w
  8065     1748  00F2               	movwf	___lwmod@dividend
  8066     1749  160A  118A  253E  160A  118A  	fcall	___lwmod
  8067     174E  0870               	movf	?___lwmod,w
  8068     174F  1283               	bcf	3,5	;RP0=0, select bank0
  8069     1750  1303               	bcf	3,6	;RP1=0, select bank0
  8070     1751  00A2               	movwf	utoa@c
  8071     1752                     i1l2825:
  8072     1752  087B               	movf	utoa@base+1,w
  8073     1753  00F1               	movwf	___lwdiv@divisor+1
  8074     1754  087A               	movf	utoa@base,w
  8075     1755  00F0               	movwf	___lwdiv@divisor
  8076     1756  0879               	movf	utoa@val+1,w
  8077     1757  00F3               	movwf	___lwdiv@dividend+1
  8078     1758  0878               	movf	utoa@val,w
  8079     1759  00F2               	movwf	___lwdiv@dividend
  8080     175A  160A  118A  25B6  160A  118A  	fcall	___lwdiv
  8081     175F  0871               	movf	?___lwdiv+1,w
  8082     1760  00F9               	movwf	utoa@val+1
  8083     1761  0870               	movf	?___lwdiv,w
  8084     1762  00F8               	movwf	utoa@val
  8085     1763                     i1l2827:
  8086     1763  300A               	movlw	10
  8087     1764  1283               	bcf	3,5	;RP0=0, select bank0
  8088     1765  1303               	bcf	3,6	;RP1=0, select bank0
  8089     1766  0222               	subwf	utoa@c,w
  8090     1767  1C03               	skipc
  8091     1768  2F6A               	goto	u378_21
  8092     1769  2F6B               	goto	u378_20
  8093     176A                     u378_21:
  8094     176A  2F6F               	goto	i1l905
  8095     176B                     u378_20:
  8096     176B                     i1l2829:
  8097     176B  3007               	movlw	7
  8098     176C  00FC               	movwf	??_utoa
  8099     176D  087C               	movf	??_utoa,w
  8100     176E  07A2               	addwf	utoa@c,f
  8101     176F                     i1l905:
  8102     176F  3030               	movlw	48
  8103     1770  00FC               	movwf	??_utoa
  8104     1771  087C               	movf	??_utoa,w
  8105     1772  07A2               	addwf	utoa@c,f
  8106     1773                     i1l2831:
  8107     1773  0823               	movf	utoa@buf,w
  8108     1774  0084               	movwf	4
  8109     1775  0822               	movf	utoa@c,w
  8110     1776  1783               	bsf	3,7	;select IRP bank2
  8111     1777  0080               	movwf	0
  8112     1778                     i1l2833:
  8113     1778  3001               	movlw	1
  8114     1779  02A3               	subwf	utoa@buf,f
  8115     177A                     i1l2835:
  8116     177A  0878               	movf	utoa@val,w
  8117     177B  0479               	iorwf	utoa@val+1,w
  8118     177C  1D03               	btfss	3,2
  8119     177D  2F7F               	goto	u379_21
  8120     177E  2F80               	goto	u379_20
  8121     177F                     u379_21:
  8122     177F  2F41               	goto	i1l2823
  8123     1780                     u379_20:
  8124     1780                     i1l2837:
  8125                           
  8126                           ;	Return value of _utoa is never used
  8127     1780  3001               	movlw	1
  8128     1781  00FC               	movwf	??_utoa
  8129     1782  087C               	movf	??_utoa,w
  8130     1783  07A3               	addwf	utoa@buf,f
  8131     1784                     i1l907:
  8132     1784  0008               	return
  8133     1785                     __end_of_utoa:
  8134                           
  8135                           	psect	text26
  8136     153E                     __ptext26:	
  8137 ;; *************** function ___lwmod *****************
  8138 ;; Defined at:
  8139 ;;		line 5 in file "C:\Program Files\Microchip\xc8\v2.40\pic\sources\c90\common\lwmod.c"
  8140 ;; Parameters:    Size  Location     Type
  8141 ;;  divisor         2    0[COMMON] unsigned int 
  8142 ;;  dividend        2    2[COMMON] unsigned int 
  8143 ;; Auto vars:     Size  Location     Type
  8144 ;;  counter         1    5[COMMON] unsigned char 
  8145 ;; Return value:  Size  Location     Type
  8146 ;;                  2    0[COMMON] unsigned int 
  8147 ;; Registers used:
  8148 ;;		wreg, status,2, status,0
  8149 ;; Tracked objects:
  8150 ;;		On entry : 0/0
  8151 ;;		On exit  : 0/0
  8152 ;;		Unchanged: 0/0
  8153 ;; Data sizes:     COMMON   BANK0   BANK1   BANK3   BANK2
  8154 ;;      Params:         4       0       0       0       0
  8155 ;;      Locals:         1       0       0       0       0
  8156 ;;      Temps:          1       0       0       0       0
  8157 ;;      Totals:         6       0       0       0       0
  8158 ;;Total ram usage:        6 bytes
  8159 ;; Hardware stack levels used: 1
  8160 ;; This function calls:
  8161 ;;		Nothing
  8162 ;; This function is called by:
  8163 ;;		_utoa
  8164 ;; This function uses a non-reentrant model
  8165 ;;
  8166                           
  8167     153E                     ___lwmod:	
  8168                           ;psect for function ___lwmod
  8169                           
  8170     153E                     i1l2171:	
  8171                           ;incstack = 0
  8172                           ; Regs used in ___lwmod: [wreg+status,2+status,0]
  8173                           
  8174     153E  0870               	movf	___lwmod@divisor,w
  8175     153F  0471               	iorwf	___lwmod@divisor+1,w
  8176     1540  1903               	btfsc	3,2
  8177     1541  2D43               	goto	u224_21
  8178     1542  2D44               	goto	u224_20
  8179     1543                     u224_21:
  8180     1543  2D73               	goto	i1l2189
  8181     1544                     u224_20:
  8182     1544                     i1l2173:
  8183     1544  01F5               	clrf	___lwmod@counter
  8184     1545  0AF5               	incf	___lwmod@counter,f
  8185     1546  2D52               	goto	i1l2179
  8186     1547                     i1l2175:
  8187     1547  3001               	movlw	1
  8188     1548                     u225_25:
  8189     1548  1003               	clrc
  8190     1549  0DF0               	rlf	___lwmod@divisor,f
  8191     154A  0DF1               	rlf	___lwmod@divisor+1,f
  8192     154B  3EFF               	addlw	-1
  8193     154C  1D03               	skipz
  8194     154D  2D48               	goto	u225_25
  8195     154E                     i1l2177:
  8196     154E  3001               	movlw	1
  8197     154F  00F4               	movwf	??___lwmod
  8198     1550  0874               	movf	??___lwmod,w
  8199     1551  07F5               	addwf	___lwmod@counter,f
  8200     1552                     i1l2179:
  8201     1552  1FF1               	btfss	___lwmod@divisor+1,7
  8202     1553  2D55               	goto	u226_21
  8203     1554  2D56               	goto	u226_20
  8204     1555                     u226_21:
  8205     1555  2D47               	goto	i1l2175
  8206     1556                     u226_20:
  8207     1556                     i1l2181:
  8208     1556  0871               	movf	___lwmod@divisor+1,w
  8209     1557  0273               	subwf	___lwmod@dividend+1,w
  8210     1558  1D03               	skipz
  8211     1559  2D5C               	goto	u227_25
  8212     155A  0870               	movf	___lwmod@divisor,w
  8213     155B  0272               	subwf	___lwmod@dividend,w
  8214     155C                     u227_25:
  8215     155C  1C03               	skipc
  8216     155D  2D5F               	goto	u227_21
  8217     155E  2D60               	goto	u227_20
  8218     155F                     u227_21:
  8219     155F  2D66               	goto	i1l2185
  8220     1560                     u227_20:
  8221     1560                     i1l2183:
  8222     1560  0870               	movf	___lwmod@divisor,w
  8223     1561  02F2               	subwf	___lwmod@dividend,f
  8224     1562  0871               	movf	___lwmod@divisor+1,w
  8225     1563  1C03               	skipc
  8226     1564  03F3               	decf	___lwmod@dividend+1,f
  8227     1565  02F3               	subwf	___lwmod@dividend+1,f
  8228     1566                     i1l2185:
  8229     1566  3001               	movlw	1
  8230     1567                     u228_25:
  8231     1567  1003               	clrc
  8232     1568  0CF1               	rrf	___lwmod@divisor+1,f
  8233     1569  0CF0               	rrf	___lwmod@divisor,f
  8234     156A  3EFF               	addlw	-1
  8235     156B  1D03               	skipz
  8236     156C  2D67               	goto	u228_25
  8237     156D                     i1l2187:
  8238     156D  3001               	movlw	1
  8239     156E  02F5               	subwf	___lwmod@counter,f
  8240     156F  1D03               	btfss	3,2
  8241     1570  2D72               	goto	u229_21
  8242     1571  2D73               	goto	u229_20
  8243     1572                     u229_21:
  8244     1572  2D56               	goto	i1l2181
  8245     1573                     u229_20:
  8246     1573                     i1l2189:
  8247     1573  0873               	movf	___lwmod@dividend+1,w
  8248     1574  00F1               	movwf	?___lwmod+1
  8249     1575  0872               	movf	___lwmod@dividend,w
  8250     1576  00F0               	movwf	?___lwmod
  8251     1577                     i1l707:
  8252     1577  0008               	return
  8253     1578                     __end_of___lwmod:
  8254                           
  8255                           	psect	text27
  8256     15B6                     __ptext27:	
  8257 ;; *************** function ___lwdiv *****************
  8258 ;; Defined at:
  8259 ;;		line 5 in file "C:\Program Files\Microchip\xc8\v2.40\pic\sources\c90\common\lwdiv.c"
  8260 ;; Parameters:    Size  Location     Type
  8261 ;;  divisor         2    0[COMMON] unsigned int 
  8262 ;;  dividend        2    2[COMMON] unsigned int 
  8263 ;; Auto vars:     Size  Location     Type
  8264 ;;  quotient        2    5[COMMON] unsigned int 
  8265 ;;  counter         1    7[COMMON] unsigned char 
  8266 ;; Return value:  Size  Location     Type
  8267 ;;                  2    0[COMMON] unsigned int 
  8268 ;; Registers used:
  8269 ;;		wreg, status,2, status,0
  8270 ;; Tracked objects:
  8271 ;;		On entry : 0/0
  8272 ;;		On exit  : 0/0
  8273 ;;		Unchanged: 0/0
  8274 ;; Data sizes:     COMMON   BANK0   BANK1   BANK3   BANK2
  8275 ;;      Params:         4       0       0       0       0
  8276 ;;      Locals:         3       0       0       0       0
  8277 ;;      Temps:          1       0       0       0       0
  8278 ;;      Totals:         8       0       0       0       0
  8279 ;;Total ram usage:        8 bytes
  8280 ;; Hardware stack levels used: 1
  8281 ;; This function calls:
  8282 ;;		Nothing
  8283 ;; This function is called by:
  8284 ;;		_utoa
  8285 ;; This function uses a non-reentrant model
  8286 ;;
  8287                           
  8288     15B6                     ___lwdiv:	
  8289                           ;psect for function ___lwdiv
  8290                           
  8291     15B6                     i1l2145:	
  8292                           ;incstack = 0
  8293                           ; Regs used in ___lwdiv: [wreg+status,2+status,0]
  8294                           
  8295     15B6  01F5               	clrf	___lwdiv@quotient
  8296     15B7  01F6               	clrf	___lwdiv@quotient+1
  8297     15B8                     i1l2147:
  8298     15B8  0870               	movf	___lwdiv@divisor,w
  8299     15B9  0471               	iorwf	___lwdiv@divisor+1,w
  8300     15BA  1903               	btfsc	3,2
  8301     15BB  2DBD               	goto	u217_21
  8302     15BC  2DBE               	goto	u217_20
  8303     15BD                     u217_21:
  8304     15BD  2DF5               	goto	i1l2167
  8305     15BE                     u217_20:
  8306     15BE                     i1l2149:
  8307     15BE  01F7               	clrf	___lwdiv@counter
  8308     15BF  0AF7               	incf	___lwdiv@counter,f
  8309     15C0  2DCC               	goto	i1l2155
  8310     15C1                     i1l2151:
  8311     15C1  3001               	movlw	1
  8312     15C2                     u218_25:
  8313     15C2  1003               	clrc
  8314     15C3  0DF0               	rlf	___lwdiv@divisor,f
  8315     15C4  0DF1               	rlf	___lwdiv@divisor+1,f
  8316     15C5  3EFF               	addlw	-1
  8317     15C6  1D03               	skipz
  8318     15C7  2DC2               	goto	u218_25
  8319     15C8                     i1l2153:
  8320     15C8  3001               	movlw	1
  8321     15C9  00F4               	movwf	??___lwdiv
  8322     15CA  0874               	movf	??___lwdiv,w
  8323     15CB  07F7               	addwf	___lwdiv@counter,f
  8324     15CC                     i1l2155:
  8325     15CC  1FF1               	btfss	___lwdiv@divisor+1,7
  8326     15CD  2DCF               	goto	u219_21
  8327     15CE  2DD0               	goto	u219_20
  8328     15CF                     u219_21:
  8329     15CF  2DC1               	goto	i1l2151
  8330     15D0                     u219_20:
  8331     15D0                     i1l2157:
  8332     15D0  3001               	movlw	1
  8333     15D1                     u220_25:
  8334     15D1  1003               	clrc
  8335     15D2  0DF5               	rlf	___lwdiv@quotient,f
  8336     15D3  0DF6               	rlf	___lwdiv@quotient+1,f
  8337     15D4  3EFF               	addlw	-1
  8338     15D5  1D03               	skipz
  8339     15D6  2DD1               	goto	u220_25
  8340     15D7  0871               	movf	___lwdiv@divisor+1,w
  8341     15D8  0273               	subwf	___lwdiv@dividend+1,w
  8342     15D9  1D03               	skipz
  8343     15DA  2DDD               	goto	u221_25
  8344     15DB  0870               	movf	___lwdiv@divisor,w
  8345     15DC  0272               	subwf	___lwdiv@dividend,w
  8346     15DD                     u221_25:
  8347     15DD  1C03               	skipc
  8348     15DE  2DE0               	goto	u221_21
  8349     15DF  2DE1               	goto	u221_20
  8350     15E0                     u221_21:
  8351     15E0  2DE8               	goto	i1l2163
  8352     15E1                     u221_20:
  8353     15E1                     i1l2159:
  8354     15E1  0870               	movf	___lwdiv@divisor,w
  8355     15E2  02F2               	subwf	___lwdiv@dividend,f
  8356     15E3  0871               	movf	___lwdiv@divisor+1,w
  8357     15E4  1C03               	skipc
  8358     15E5  03F3               	decf	___lwdiv@dividend+1,f
  8359     15E6  02F3               	subwf	___lwdiv@dividend+1,f
  8360     15E7                     i1l2161:
  8361     15E7  1475               	bsf	___lwdiv@quotient,0
  8362     15E8                     i1l2163:
  8363     15E8  3001               	movlw	1
  8364     15E9                     u222_25:
  8365     15E9  1003               	clrc
  8366     15EA  0CF1               	rrf	___lwdiv@divisor+1,f
  8367     15EB  0CF0               	rrf	___lwdiv@divisor,f
  8368     15EC  3EFF               	addlw	-1
  8369     15ED  1D03               	skipz
  8370     15EE  2DE9               	goto	u222_25
  8371     15EF                     i1l2165:
  8372     15EF  3001               	movlw	1
  8373     15F0  02F7               	subwf	___lwdiv@counter,f
  8374     15F1  1D03               	btfss	3,2
  8375     15F2  2DF4               	goto	u223_21
  8376     15F3  2DF5               	goto	u223_20
  8377     15F4                     u223_21:
  8378     15F4  2DD0               	goto	i1l2157
  8379     15F5                     u223_20:
  8380     15F5                     i1l2167:
  8381     15F5  0876               	movf	___lwdiv@quotient+1,w
  8382     15F6  00F1               	movwf	?___lwdiv+1
  8383     15F7  0875               	movf	___lwdiv@quotient,w
  8384     15F8  00F0               	movwf	?___lwdiv
  8385     15F9                     i1l697:
  8386     15F9  0008               	return
  8387     15FA                     __end_of___lwdiv:
  8388                           
  8389                           	psect	text28
  8390     14D1                     __ptext28:	
  8391 ;; *************** function _Recibir_Texto *****************
  8392 ;; Defined at:
  8393 ;;		line 51 in file "EUSART.c"
  8394 ;; Parameters:    Size  Location     Type
  8395 ;;  Output          1    wreg     PTR unsigned char 
  8396 ;;		 -> isr@buffer(50), Selector(1), 
  8397 ;;  maxLength       2    0[COMMON] unsigned int 
  8398 ;; Auto vars:     Size  Location     Type
  8399 ;;  Output          1    3[COMMON] PTR unsigned char 
  8400 ;;		 -> isr@buffer(50), Selector(1), 
  8401 ;;  i               2    4[COMMON] unsigned int 
  8402 ;; Return value:  Size  Location     Type
  8403 ;;                  1    wreg      void 
  8404 ;; Registers used:
  8405 ;;		wreg, fsr0l, fsr0h, status,2, status,0
  8406 ;; Tracked objects:
  8407 ;;		On entry : 0/0
  8408 ;;		On exit  : 0/0
  8409 ;;		Unchanged: 0/0
  8410 ;; Data sizes:     COMMON   BANK0   BANK1   BANK3   BANK2
  8411 ;;      Params:         2       0       0       0       0
  8412 ;;      Locals:         3       0       0       0       0
  8413 ;;      Temps:          1       0       0       0       0
  8414 ;;      Totals:         6       0       0       0       0
  8415 ;;Total ram usage:        6 bytes
  8416 ;; Hardware stack levels used: 1
  8417 ;; This function calls:
  8418 ;;		Nothing
  8419 ;; This function is called by:
  8420 ;;		_isr
  8421 ;; This function uses a non-reentrant model
  8422 ;;
  8423                           
  8424     14D1                     _Recibir_Texto:	
  8425                           ;psect for function _Recibir_Texto
  8426                           
  8427                           
  8428                           ;incstack = 0
  8429                           ; Regs used in _Recibir_Texto: [wreg-fsr0h+status,2+status,0]
  8430                           ;Recibir_Texto@Output stored from wreg
  8431     14D1  00F3               	movwf	Recibir_Texto@Output
  8432     14D2                     i1l2901:
  8433                           
  8434                           ;EUSART.c: 51: void Recibir_Texto(char* Output, unsigned int maxLength);EUSART.c: 52: {;
      +                          EUSART.c: 53:     unsigned int i;;EUSART.c: 54:     for(i=0; i<maxLength; i++)
  8435     14D2  01F4               	clrf	Recibir_Texto@i
  8436     14D3  01F5               	clrf	Recibir_Texto@i+1
  8437     14D4  2CF5               	goto	i1l246
  8438     14D5                     i1l248:
  8439     14D5  1283               	bcf	3,5	;RP0=0, select bank0
  8440     14D6  1303               	bcf	3,6	;RP1=0, select bank0
  8441     14D7  1E8C               	btfss	12,5	;volatile
  8442     14D8  2CDA               	goto	u391_21
  8443     14D9  2CDB               	goto	u391_20
  8444     14DA                     u391_21:
  8445     14DA  2CD5               	goto	i1l248
  8446     14DB                     u391_20:
  8447     14DB                     i1l2903:
  8448                           
  8449                           ;EUSART.c: 57:         Output[i] = RCREG;
  8450     14DB  0874               	movf	Recibir_Texto@i,w
  8451     14DC  0773               	addwf	Recibir_Texto@Output,w
  8452     14DD  00F2               	movwf	??_Recibir_Texto
  8453     14DE  0872               	movf	??_Recibir_Texto,w
  8454     14DF  0084               	movwf	4
  8455     14E0  081A               	movf	26,w	;volatile
  8456     14E1  1783               	bsf	3,7	;select IRP bank2
  8457     14E2  0080               	movwf	0
  8458                           
  8459                           ;EUSART.c: 59:         if(Output[i] == '\r')
  8460     14E3  0874               	movf	Recibir_Texto@i,w
  8461     14E4  0773               	addwf	Recibir_Texto@Output,w
  8462     14E5  00F2               	movwf	??_Recibir_Texto
  8463     14E6  0872               	movf	??_Recibir_Texto,w
  8464     14E7  0084               	movwf	4
  8465     14E8  300D               	movlw	13
  8466     14E9  0600               	xorwf	0,w
  8467     14EA  1D03               	btfss	3,2
  8468     14EB  2CED               	goto	u392_21
  8469     14EC  2CEE               	goto	u392_20
  8470     14ED                     u392_21:
  8471     14ED  2CEF               	goto	i1l2907
  8472     14EE                     u392_20:
  8473     14EE  2CFF               	goto	i1l2909
  8474     14EF                     i1l2907:
  8475                           
  8476                           ;EUSART.c: 61:     }
  8477     14EF  3001               	movlw	1
  8478     14F0  07F4               	addwf	Recibir_Texto@i,f
  8479     14F1  1803               	skipnc
  8480     14F2  0AF5               	incf	Recibir_Texto@i+1,f
  8481     14F3  3000               	movlw	0
  8482     14F4  07F5               	addwf	Recibir_Texto@i+1,f
  8483     14F5                     i1l246:
  8484     14F5  0871               	movf	Recibir_Texto@maxLength+1,w
  8485     14F6  0275               	subwf	Recibir_Texto@i+1,w
  8486     14F7  1D03               	skipz
  8487     14F8  2CFB               	goto	u393_25
  8488     14F9  0870               	movf	Recibir_Texto@maxLength,w
  8489     14FA  0274               	subwf	Recibir_Texto@i,w
  8490     14FB                     u393_25:
  8491     14FB  1C03               	skipc
  8492     14FC  2CFE               	goto	u393_21
  8493     14FD  2CFF               	goto	u393_20
  8494     14FE                     u393_21:
  8495     14FE  2CD5               	goto	i1l248
  8496     14FF                     u393_20:
  8497     14FF                     i1l2909:
  8498                           
  8499                           ;EUSART.c: 62:     Output[i] = '\0';
  8500     14FF  0874               	movf	Recibir_Texto@i,w
  8501     1500  0773               	addwf	Recibir_Texto@Output,w
  8502     1501  00F2               	movwf	??_Recibir_Texto
  8503     1502  0872               	movf	??_Recibir_Texto,w
  8504     1503  0084               	movwf	4
  8505     1504  1783               	bsf	3,7	;select IRP bank2
  8506     1505  0180               	clrf	0
  8507     1506                     i1l253:
  8508     1506  0008               	return
  8509     1507                     __end_of_Recibir_Texto:
  8510                           
  8511                           	psect	text29
  8512     1650                     __ptext29:	
  8513 ;; *************** function _PWM_duty *****************
  8514 ;; Defined at:
  8515 ;;		line 47 in file "PWM.c"
  8516 ;; Parameters:    Size  Location     Type
  8517 ;;  canal           1    wreg     unsigned char 
  8518 ;;  duty            2    9[BANK1 ] unsigned short 
  8519 ;; Auto vars:     Size  Location     Type
  8520 ;;  canal           1   13[BANK1 ] unsigned char 
  8521 ;; Return value:  Size  Location     Type
  8522 ;;                  1    wreg      void 
  8523 ;; Registers used:
  8524 ;;		wreg, status,2, status,0
  8525 ;; Tracked objects:
  8526 ;;		On entry : 0/0
  8527 ;;		On exit  : 0/0
  8528 ;;		Unchanged: 0/0
  8529 ;; Data sizes:     COMMON   BANK0   BANK1   BANK3   BANK2
  8530 ;;      Params:         0       0       2       0       0
  8531 ;;      Locals:         0       0       1       0       0
  8532 ;;      Temps:          0       0       2       0       0
  8533 ;;      Totals:         0       0       5       0       0
  8534 ;;Total ram usage:        5 bytes
  8535 ;; Hardware stack levels used: 1
  8536 ;; This function calls:
  8537 ;;		Nothing
  8538 ;; This function is called by:
  8539 ;;		_isr
  8540 ;; This function uses a non-reentrant model
  8541 ;;
  8542                           
  8543     1650                     _PWM_duty:	
  8544                           ;psect for function _PWM_duty
  8545                           
  8546                           
  8547                           ;incstack = 0
  8548                           ; Regs used in _PWM_duty: [wreg+status,2+status,0]
  8549                           ;PWM_duty@canal stored from wreg
  8550     1650  1683               	bsf	3,5	;RP0=1, select bank1
  8551     1651  1303               	bcf	3,6	;RP1=0, select bank1
  8552     1652  00AD               	movwf	PWM_duty@canal^(0+128)
  8553     1653                     i1l2845:
  8554                           
  8555                           ;PWM.c: 47: void PWM_duty(char canal, unsigned short duty);PWM.c: 48: {;PWM.c: 49:      
      +                             if (canal == 1)
  8556     1653  032D               	decf	PWM_duty@canal^(0+128),w
  8557     1654  1D03               	btfss	3,2
  8558     1655  2E57               	goto	u380_21
  8559     1656  2E58               	goto	u380_20
  8560     1657                     u380_21:
  8561     1657  2E77               	goto	i1l299
  8562     1658                     u380_20:
  8563     1658                     i1l2847:
  8564                           
  8565                           ;PWM.c: 50:         {;PWM.c: 51:             CCPR1L = duty>>2;
  8566     1658  082A               	movf	(PWM_duty@duty+1)^(0+128),w
  8567     1659  00AC               	movwf	(??_PWM_duty^(0+128)+1)
  8568     165A  0829               	movf	PWM_duty@duty^(0+128),w
  8569     165B  00AB               	movwf	??_PWM_duty^(0+128)
  8570     165C  1003               	clrc
  8571     165D  0CAC               	rrf	(??_PWM_duty^(0+128)+1),f
  8572     165E  0CAB               	rrf	??_PWM_duty^(0+128),f
  8573     165F  1003               	clrc
  8574     1660  0CAC               	rrf	(??_PWM_duty^(0+128)+1),f
  8575     1661  0CAB               	rrf	??_PWM_duty^(0+128),f
  8576     1662  082B               	movf	??_PWM_duty^(0+128),w
  8577     1663  1283               	bcf	3,5	;RP0=0, select bank0
  8578     1664  1303               	bcf	3,6	;RP1=0, select bank0
  8579     1665  0095               	movwf	21	;volatile
  8580                           
  8581                           ;PWM.c: 52:             CCP1CONbits.DC1B = duty & 3;
  8582     1666  1683               	bsf	3,5	;RP0=1, select bank1
  8583     1667  1303               	bcf	3,6	;RP1=0, select bank1
  8584     1668  0829               	movf	PWM_duty@duty^(0+128),w
  8585     1669  3903               	andlw	3
  8586     166A  00AB               	movwf	??_PWM_duty^(0+128)
  8587     166B  0EAB               	swapf	??_PWM_duty^(0+128),f
  8588     166C  1283               	bcf	3,5	;RP0=0, select bank0
  8589     166D  1303               	bcf	3,6	;RP1=0, select bank0
  8590     166E  0817               	movf	23,w	;volatile
  8591     166F  1683               	bsf	3,5	;RP0=1, select bank1
  8592     1670  1303               	bcf	3,6	;RP1=0, select bank1
  8593     1671  062B               	xorwf	??_PWM_duty^(0+128),w
  8594     1672  39CF               	andlw	-49
  8595     1673  062B               	xorwf	??_PWM_duty^(0+128),w
  8596     1674  1283               	bcf	3,5	;RP0=0, select bank0
  8597     1675  1303               	bcf	3,6	;RP1=0, select bank0
  8598     1676  0097               	movwf	23	;volatile
  8599     1677                     i1l299:	
  8600                           ;PWM.c: 53:         }
  8601                           
  8602                           
  8603                           ;PWM.c: 54:         if (canal == 2)
  8604     1677  3002               	movlw	2
  8605     1678  1683               	bsf	3,5	;RP0=1, select bank1
  8606     1679  1303               	bcf	3,6	;RP1=0, select bank1
  8607     167A  062D               	xorwf	PWM_duty@canal^(0+128),w
  8608     167B  1D03               	btfss	3,2
  8609     167C  2E7E               	goto	u381_21
  8610     167D  2E7F               	goto	u381_20
  8611     167E                     u381_21:
  8612     167E  2EB0               	goto	i1l301
  8613     167F                     u381_20:
  8614     167F                     i1l2849:
  8615                           
  8616                           ;PWM.c: 55:         {;PWM.c: 56:             CCPR2L = (duty>>2);
  8617     167F  082A               	movf	(PWM_duty@duty+1)^(0+128),w
  8618     1680  00AC               	movwf	(??_PWM_duty^(0+128)+1)
  8619     1681  0829               	movf	PWM_duty@duty^(0+128),w
  8620     1682  00AB               	movwf	??_PWM_duty^(0+128)
  8621     1683  1003               	clrc
  8622     1684  0CAC               	rrf	(??_PWM_duty^(0+128)+1),f
  8623     1685  0CAB               	rrf	??_PWM_duty^(0+128),f
  8624     1686  1003               	clrc
  8625     1687  0CAC               	rrf	(??_PWM_duty^(0+128)+1),f
  8626     1688  0CAB               	rrf	??_PWM_duty^(0+128),f
  8627     1689  082B               	movf	??_PWM_duty^(0+128),w
  8628     168A  1283               	bcf	3,5	;RP0=0, select bank0
  8629     168B  1303               	bcf	3,6	;RP1=0, select bank0
  8630     168C  009B               	movwf	27	;volatile
  8631                           
  8632                           ;PWM.c: 57:             CCP2CONbits.DC2B0 = duty & 0b01;
  8633     168D  1683               	bsf	3,5	;RP0=1, select bank1
  8634     168E  1303               	bcf	3,6	;RP1=0, select bank1
  8635     168F  0829               	movf	PWM_duty@duty^(0+128),w
  8636     1690  3901               	andlw	1
  8637     1691  00AB               	movwf	??_PWM_duty^(0+128)
  8638     1692  0EAB               	swapf	??_PWM_duty^(0+128),f
  8639     1693  1283               	bcf	3,5	;RP0=0, select bank0
  8640     1694  1303               	bcf	3,6	;RP1=0, select bank0
  8641     1695  081D               	movf	29,w	;volatile
  8642     1696  1683               	bsf	3,5	;RP0=1, select bank1
  8643     1697  1303               	bcf	3,6	;RP1=0, select bank1
  8644     1698  062B               	xorwf	??_PWM_duty^(0+128),w
  8645     1699  39EF               	andlw	-17
  8646     169A  062B               	xorwf	??_PWM_duty^(0+128),w
  8647     169B  1283               	bcf	3,5	;RP0=0, select bank0
  8648     169C  1303               	bcf	3,6	;RP1=0, select bank0
  8649     169D  009D               	movwf	29	;volatile
  8650                           
  8651                           ;PWM.c: 58:             CCP2CONbits.DC2B1 = duty & 0b10;
  8652     169E  1683               	bsf	3,5	;RP0=1, select bank1
  8653     169F  1303               	bcf	3,6	;RP1=0, select bank1
  8654     16A0  0829               	movf	PWM_duty@duty^(0+128),w
  8655     16A1  3902               	andlw	2
  8656     16A2  00AB               	movwf	??_PWM_duty^(0+128)
  8657     16A3  0EAB               	swapf	??_PWM_duty^(0+128),f
  8658     16A4  0DAB               	rlf	??_PWM_duty^(0+128),f
  8659     16A5  1283               	bcf	3,5	;RP0=0, select bank0
  8660     16A6  1303               	bcf	3,6	;RP1=0, select bank0
  8661     16A7  081D               	movf	29,w	;volatile
  8662     16A8  1683               	bsf	3,5	;RP0=1, select bank1
  8663     16A9  1303               	bcf	3,6	;RP1=0, select bank1
  8664     16AA  062B               	xorwf	??_PWM_duty^(0+128),w
  8665     16AB  39DF               	andlw	-33
  8666     16AC  062B               	xorwf	??_PWM_duty^(0+128),w
  8667     16AD  1283               	bcf	3,5	;RP0=0, select bank0
  8668     16AE  1303               	bcf	3,6	;RP1=0, select bank0
  8669     16AF  009D               	movwf	29	;volatile
  8670     16B0                     i1l301:
  8671     16B0  0008               	return
  8672     16B1                     __end_of_PWM_duty:
  8673                           
  8674                           	psect	text30
  8675     1507                     __ptext30:	
  8676 ;; *************** function _PWM_Mux_Channel_Select *****************
  8677 ;; Defined at:
  8678 ;;		line 73 in file "PWM.c"
  8679 ;; Parameters:    Size  Location     Type
  8680 ;;  channel         2    0[COMMON] int 
  8681 ;; Auto vars:     Size  Location     Type
  8682 ;;		None
  8683 ;; Return value:  Size  Location     Type
  8684 ;;                  1    wreg      void 
  8685 ;; Registers used:
  8686 ;;		wreg, status,2, status,0
  8687 ;; Tracked objects:
  8688 ;;		On entry : 0/0
  8689 ;;		On exit  : 0/0
  8690 ;;		Unchanged: 0/0
  8691 ;; Data sizes:     COMMON   BANK0   BANK1   BANK3   BANK2
  8692 ;;      Params:         2       0       0       0       0
  8693 ;;      Locals:         0       0       0       0       0
  8694 ;;      Temps:          0       0       0       0       0
  8695 ;;      Totals:         2       0       0       0       0
  8696 ;;Total ram usage:        2 bytes
  8697 ;; Hardware stack levels used: 1
  8698 ;; This function calls:
  8699 ;;		Nothing
  8700 ;; This function is called by:
  8701 ;;		_isr
  8702 ;; This function uses a non-reentrant model
  8703 ;;
  8704                           
  8705     1507                     _PWM_Mux_Channel_Select:	
  8706                           ;psect for function _PWM_Mux_Channel_Select
  8707                           
  8708     1507                     i1l2853:	
  8709                           ;incstack = 0
  8710                           ; Regs used in _PWM_Mux_Channel_Select: [wreg+status,2+status,0]
  8711                           
  8712                           
  8713                           ;PWM.c: 73: void PWM_Mux_Channel_Select(int channel);PWM.c: 74: {;PWM.c: 75:     if (cha
      +                          nnel == 0)
  8714     1507  0870               	movf	PWM_Mux_Channel_Select@channel,w
  8715     1508  0471               	iorwf	PWM_Mux_Channel_Select@channel+1,w
  8716     1509  1D03               	btfss	3,2
  8717     150A  2D0C               	goto	u382_21
  8718     150B  2D0D               	goto	u382_20
  8719     150C                     u382_21:
  8720     150C  2D14               	goto	i1l2857
  8721     150D                     u382_20:
  8722     150D                     i1l2855:
  8723                           
  8724                           ;PWM.c: 76:     {;PWM.c: 77:         PSTRCONbits.STRA = 1;
  8725     150D  1683               	bsf	3,5	;RP0=1, select bank1
  8726     150E  1303               	bcf	3,6	;RP1=0, select bank1
  8727     150F  141D               	bsf	29,0	;volatile
  8728                           
  8729                           ;PWM.c: 78:         PSTRCONbits.STRB = 0;
  8730     1510  109D               	bcf	29,1	;volatile
  8731                           
  8732                           ;PWM.c: 79:         PSTRCONbits.STRC = 0;
  8733     1511  111D               	bcf	29,2	;volatile
  8734                           
  8735                           ;PWM.c: 80:         PSTRCONbits.STRD = 0;
  8736     1512  119D               	bcf	29,3	;volatile
  8737                           
  8738                           ;PWM.c: 81:     }
  8739     1513  2D3D               	goto	i1l317
  8740     1514                     i1l2857:
  8741     1514  0370               	decf	PWM_Mux_Channel_Select@channel,w
  8742     1515  0471               	iorwf	PWM_Mux_Channel_Select@channel+1,w
  8743     1516  1D03               	btfss	3,2
  8744     1517  2D19               	goto	u383_21
  8745     1518  2D1A               	goto	u383_20
  8746     1519                     u383_21:
  8747     1519  2D21               	goto	i1l2861
  8748     151A                     u383_20:
  8749     151A                     i1l2859:
  8750                           
  8751                           ;PWM.c: 83:     {;PWM.c: 84:         PSTRCONbits.STRA = 0;
  8752     151A  1683               	bsf	3,5	;RP0=1, select bank1
  8753     151B  1303               	bcf	3,6	;RP1=0, select bank1
  8754     151C  101D               	bcf	29,0	;volatile
  8755                           
  8756                           ;PWM.c: 85:         PSTRCONbits.STRB = 1;
  8757     151D  149D               	bsf	29,1	;volatile
  8758                           
  8759                           ;PWM.c: 86:         PSTRCONbits.STRC = 0;
  8760     151E  111D               	bcf	29,2	;volatile
  8761                           
  8762                           ;PWM.c: 87:         PSTRCONbits.STRD = 0;
  8763     151F  119D               	bcf	29,3	;volatile
  8764                           
  8765                           ;PWM.c: 88:     }
  8766     1520  2D3D               	goto	i1l317
  8767     1521                     i1l2861:
  8768     1521  3002               	movlw	2
  8769     1522  0670               	xorwf	PWM_Mux_Channel_Select@channel,w
  8770     1523  0471               	iorwf	PWM_Mux_Channel_Select@channel+1,w
  8771     1524  1D03               	btfss	3,2
  8772     1525  2D27               	goto	u384_21
  8773     1526  2D28               	goto	u384_20
  8774     1527                     u384_21:
  8775     1527  2D2F               	goto	i1l2865
  8776     1528                     u384_20:
  8777     1528                     i1l2863:
  8778                           
  8779                           ;PWM.c: 90:     {;PWM.c: 91:         PSTRCONbits.STRA = 0;
  8780     1528  1683               	bsf	3,5	;RP0=1, select bank1
  8781     1529  1303               	bcf	3,6	;RP1=0, select bank1
  8782     152A  101D               	bcf	29,0	;volatile
  8783                           
  8784                           ;PWM.c: 92:         PSTRCONbits.STRB = 0;
  8785     152B  109D               	bcf	29,1	;volatile
  8786                           
  8787                           ;PWM.c: 93:         PSTRCONbits.STRC = 1;
  8788     152C  151D               	bsf	29,2	;volatile
  8789                           
  8790                           ;PWM.c: 94:         PSTRCONbits.STRD = 0;
  8791     152D  119D               	bcf	29,3	;volatile
  8792                           
  8793                           ;PWM.c: 95:     }
  8794     152E  2D3D               	goto	i1l317
  8795     152F                     i1l2865:
  8796     152F  3003               	movlw	3
  8797     1530  0670               	xorwf	PWM_Mux_Channel_Select@channel,w
  8798     1531  0471               	iorwf	PWM_Mux_Channel_Select@channel+1,w
  8799     1532  1D03               	btfss	3,2
  8800     1533  2D35               	goto	u385_21
  8801     1534  2D36               	goto	u385_20
  8802     1535                     u385_21:
  8803     1535  2D3D               	goto	i1l313
  8804     1536                     u385_20:
  8805     1536                     i1l2867:
  8806                           
  8807                           ;PWM.c: 97:     {;PWM.c: 98:         PSTRCONbits.STRA = 0;
  8808     1536  1683               	bsf	3,5	;RP0=1, select bank1
  8809     1537  1303               	bcf	3,6	;RP1=0, select bank1
  8810     1538  101D               	bcf	29,0	;volatile
  8811                           
  8812                           ;PWM.c: 99:         PSTRCONbits.STRB = 0;
  8813     1539  109D               	bcf	29,1	;volatile
  8814                           
  8815                           ;PWM.c: 100:         PSTRCONbits.STRC = 0;
  8816     153A  111D               	bcf	29,2	;volatile
  8817                           
  8818                           ;PWM.c: 101:         PSTRCONbits.STRD = 1;
  8819     153B  159D               	bsf	29,3	;volatile
  8820     153C  2D3D               	goto	i1l317
  8821     153D                     i1l313:
  8822     153D                     i1l317:
  8823     153D  0008               	return
  8824     153E                     __end_of_PWM_Mux_Channel_Select:
  8825                           
  8826                           	psect	text31
  8827     1453                     __ptext31:	
  8828 ;; *************** function _Enviar_Texto *****************
  8829 ;; Defined at:
  8830 ;;		line 41 in file "EUSART.c"
  8831 ;; Parameters:    Size  Location     Type
  8832 ;;  text            2    0[COMMON] PTR unsigned char 
  8833 ;;		 -> STR_9(7), STR_8(2), isr@numStr(12), STR_7(19), 
  8834 ;;		 -> STR_6(52), STR_5(17), STR_4(18), STR_3(21), 
  8835 ;;		 -> STR_2(74), STR_1(15), 
  8836 ;; Auto vars:     Size  Location     Type
  8837 ;;		None
  8838 ;; Return value:  Size  Location     Type
  8839 ;;                  1    wreg      void 
  8840 ;; Registers used:
  8841 ;;		wreg, fsr0l, fsr0h, btemp+1, pclath
  8842 ;; Tracked objects:
  8843 ;;		On entry : 0/0
  8844 ;;		On exit  : 0/0
  8845 ;;		Unchanged: 0/0
  8846 ;; Data sizes:     COMMON   BANK0   BANK1   BANK3   BANK2
  8847 ;;      Params:         2       0       0       0       0
  8848 ;;      Locals:         0       0       0       0       0
  8849 ;;      Temps:          0       0       0       0       0
  8850 ;;      Totals:         2       0       0       0       0
  8851 ;;Total ram usage:        2 bytes
  8852 ;; Hardware stack levels used: 2
  8853 ;; This function calls:
  8854 ;;		Nothing
  8855 ;; This function is called by:
  8856 ;;		_isr
  8857 ;; This function uses a non-reentrant model
  8858 ;;
  8859                           
  8860     1453                     _Enviar_Texto:	
  8861                           ;psect for function _Enviar_Texto
  8862                           
  8863     1453                     i1l2869:	
  8864                           ;incstack = 0
  8865                           ; Regs used in _Enviar_Texto: [wreg-fsr0h+btemp+1+pclath]
  8866                           
  8867                           
  8868                           ;EUSART.c: 41: void Enviar_Texto(unsigned char *text);EUSART.c: 42: {;EUSART.c: 43:     
      +                          while (*text != '\0')
  8869     1453  2C68               	goto	i1l2875
  8870     1454                     i1l239:
  8871     1454  1E0C               	btfss	12,4	;volatile
  8872     1455  2C57               	goto	u386_21
  8873     1456  2C58               	goto	u386_20
  8874     1457                     u386_21:
  8875     1457  2C54               	goto	i1l239
  8876     1458                     u386_20:
  8877     1458                     i1l2871:
  8878                           
  8879                           ;EUSART.c: 46:     TXREG = *text;
  8880     1458  0871               	movf	Enviar_Texto@text+1,w
  8881     1459  00FF               	movwf	btemp+1
  8882     145A  0870               	movf	Enviar_Texto@text,w
  8883     145B  0084               	movwf	4
  8884     145C  120A  158A  2000  160A  118A  	fcall	stringtab
  8885     1461  0099               	movwf	25	;volatile
  8886     1462                     i1l2873:
  8887                           
  8888                           ;EUSART.c: 47:     *text++;
  8889     1462  3001               	movlw	1
  8890     1463  07F0               	addwf	Enviar_Texto@text,f
  8891     1464  1803               	skipnc
  8892     1465  0AF1               	incf	Enviar_Texto@text+1,f
  8893     1466  3000               	movlw	0
  8894     1467  07F1               	addwf	Enviar_Texto@text+1,f
  8895     1468                     i1l2875:
  8896                           
  8897                           ;EUSART.c: 43:     while (*text != '\0')
  8898     1468  0871               	movf	Enviar_Texto@text+1,w
  8899     1469  1283               	bcf	3,5	;RP0=0, select bank0
  8900     146A  1303               	bcf	3,6	;RP1=0, select bank0
  8901     146B  00FF               	movwf	btemp+1
  8902     146C  0870               	movf	Enviar_Texto@text,w
  8903     146D  0084               	movwf	4
  8904     146E  120A  158A  2000  160A  118A  	fcall	stringtab
  8905     1473  3A00               	xorlw	0
  8906     1474  1D03               	skipz
  8907     1475  2C77               	goto	u387_21
  8908     1476  2C78               	goto	u387_20
  8909     1477                     u387_21:
  8910     1477  2C54               	goto	i1l239
  8911     1478                     u387_20:
  8912     1478                     i1l243:
  8913     1478  0008               	return
  8914     1479                     __end_of_Enviar_Texto:
  8915                           
  8916                           	psect	text32
  8917     13EF                     __ptext32:	
  8918 ;; *************** function _EEPROM_Write *****************
  8919 ;; Defined at:
  8920 ;;		line 15 in file "EEPROM.c"
  8921 ;; Parameters:    Size  Location     Type
  8922 ;;  adress          1    wreg     unsigned char 
  8923 ;;  data            1    0[COMMON] unsigned char 
  8924 ;; Auto vars:     Size  Location     Type
  8925 ;;  adress          1    1[COMMON] unsigned char 
  8926 ;; Return value:  Size  Location     Type
  8927 ;;                  1    wreg      void 
  8928 ;; Registers used:
  8929 ;;		wreg
  8930 ;; Tracked objects:
  8931 ;;		On entry : 0/0
  8932 ;;		On exit  : 0/0
  8933 ;;		Unchanged: 0/0
  8934 ;; Data sizes:     COMMON   BANK0   BANK1   BANK3   BANK2
  8935 ;;      Params:         1       0       0       0       0
  8936 ;;      Locals:         1       0       0       0       0
  8937 ;;      Temps:          0       0       0       0       0
  8938 ;;      Totals:         2       0       0       0       0
  8939 ;;Total ram usage:        2 bytes
  8940 ;; Hardware stack levels used: 1
  8941 ;; This function calls:
  8942 ;;		Nothing
  8943 ;; This function is called by:
  8944 ;;		_isr
  8945 ;; This function uses a non-reentrant model
  8946 ;;
  8947                           
  8948     13EF                     _EEPROM_Write:	
  8949                           ;psect for function _EEPROM_Write
  8950                           
  8951                           
  8952                           ;incstack = 0
  8953                           ; Regs used in _EEPROM_Write: [wreg]
  8954                           ;EEPROM_Write@adress stored from wreg
  8955     13EF  00F1               	movwf	EEPROM_Write@adress
  8956     13F0                     i1l2877:
  8957     13F0                     i1l336:	
  8958                           ;EEPROM.c: 15: void EEPROM_Write(uint8_t adress, uint8_t data);EEPROM.c: 16: {;EEPROM.c:
      +                           17:     while(EECON1bits.WR);
  8959                           
  8960     13F0  1683               	bsf	3,5	;RP0=1, select bank3
  8961     13F1  1703               	bsf	3,6	;RP1=1, select bank3
  8962     13F2  188C               	btfsc	12,1	;volsfr
  8963     13F3  2BF5               	goto	u388_21
  8964     13F4  2BF6               	goto	u388_20
  8965     13F5                     u388_21:
  8966     13F5  2BF0               	goto	i1l336
  8967     13F6                     u388_20:
  8968     13F6                     i1l338:
  8969                           
  8970                           ;EEPROM.c: 18:     EECON1bits.EEPGD = 0;
  8971     13F6  138C               	bcf	12,7	;volsfr
  8972                           
  8973                           ;EEPROM.c: 19:     EECON1bits.WREN = 1;
  8974     13F7  150C               	bsf	12,2	;volsfr
  8975     13F8                     i1l2879:
  8976                           
  8977                           ;EEPROM.c: 20:     EEADR = adress;
  8978     13F8  0871               	movf	EEPROM_Write@adress,w
  8979     13F9  1283               	bcf	3,5	;RP0=0, select bank2
  8980     13FA  1703               	bsf	3,6	;RP1=1, select bank2
  8981     13FB  008D               	movwf	13	;volatile
  8982                           
  8983                           ;EEPROM.c: 21:     EEDAT = data;
  8984     13FC  0870               	movf	EEPROM_Write@data,w
  8985     13FD  008C               	movwf	12	;volatile
  8986     13FE                     i1l2881:
  8987                           
  8988                           ;EEPROM.c: 23:     INTCONbits.GIE = 0;
  8989     13FE  138B               	bcf	11,7	;volatile
  8990                           
  8991                           ;EEPROM.c: 24:     EECON2 = 0x55;
  8992     13FF  3055               	movlw	85
  8993     1400  1683               	bsf	3,5	;RP0=1, select bank3
  8994     1401  1703               	bsf	3,6	;RP1=1, select bank3
  8995     1402  008D               	movwf	13	;volsfr
  8996                           
  8997                           ;EEPROM.c: 25:     EECON2 = 0xAA;
  8998     1403  30AA               	movlw	170
  8999     1404  008D               	movwf	13	;volsfr
  9000     1405                     i1l2883:
  9001                           
  9002                           ;EEPROM.c: 27:     EECON1bits.WR = 1;
  9003     1405  148C               	bsf	12,1	;volsfr
  9004     1406                     i1l2885:
  9005                           
  9006                           ;EEPROM.c: 29:     INTCONbits.GIE = 1;
  9007     1406  178B               	bsf	11,7	;volatile
  9008     1407                     i1l2887:
  9009                           
  9010                           ;EEPROM.c: 30:     EECON1bits.WREN = 0;
  9011     1407  110C               	bcf	12,2	;volsfr
  9012     1408                     i1l2889:
  9013                           
  9014                           ;EEPROM.c: 31:     INTCONbits.RBIF = 0;
  9015     1408  100B               	bcf	11,0	;volatile
  9016     1409                     i1l339:
  9017     1409  0008               	return
  9018     140A                     __end_of_EEPROM_Write:
  9019                           
  9020                           	psect	text33
  9021     08F0                     __ptext33:	
  9022 ;; *************** function _EEPROM_Read *****************
  9023 ;; Defined at:
  9024 ;;		line 5 in file "EEPROM.c"
  9025 ;; Parameters:    Size  Location     Type
  9026 ;;  adress          1    wreg     unsigned char 
  9027 ;; Auto vars:     Size  Location     Type
  9028 ;;  adress          1    0[COMMON] unsigned char 
  9029 ;; Return value:  Size  Location     Type
  9030 ;;                  1    wreg      unsigned char 
  9031 ;; Registers used:
  9032 ;;		wreg
  9033 ;; Tracked objects:
  9034 ;;		On entry : 0/0
  9035 ;;		On exit  : 0/0
  9036 ;;		Unchanged: 0/0
  9037 ;; Data sizes:     COMMON   BANK0   BANK1   BANK3   BANK2
  9038 ;;      Params:         0       0       0       0       0
  9039 ;;      Locals:         1       0       0       0       0
  9040 ;;      Temps:          0       0       0       0       0
  9041 ;;      Totals:         1       0       0       0       0
  9042 ;;Total ram usage:        1 bytes
  9043 ;; Hardware stack levels used: 1
  9044 ;; This function calls:
  9045 ;;		Nothing
  9046 ;; This function is called by:
  9047 ;;		_isr
  9048 ;; This function uses a non-reentrant model
  9049 ;;
  9050                           
  9051     08F0                     _EEPROM_Read:	
  9052                           ;psect for function _EEPROM_Read
  9053                           
  9054                           
  9055                           ;incstack = 0
  9056                           ; Regs used in _EEPROM_Read: [wreg]
  9057                           ;EEPROM_Read@adress stored from wreg
  9058     08F0  00F0               	movwf	EEPROM_Read@adress
  9059     08F1                     i1l2891:
  9060     08F1                     i1l330:	
  9061                           ;EEPROM.c: 5: uint8_t EEPROM_Read(uint8_t adress);EEPROM.c: 6: {;EEPROM.c: 7:     while(
      +                          EECON1bits.RD || EECON1bits.WR);
  9062                           
  9063     08F1  1683               	bsf	3,5	;RP0=1, select bank3
  9064     08F2  1703               	bsf	3,6	;RP1=1, select bank3
  9065     08F3  180C               	btfsc	12,0	;volsfr
  9066     08F4  28F6               	goto	u389_21
  9067     08F5  28F7               	goto	u389_20
  9068     08F6                     u389_21:
  9069     08F6  28F1               	goto	i1l330
  9070     08F7                     u389_20:
  9071     08F7                     i1l2893:
  9072     08F7  188C               	btfsc	12,1	;volsfr
  9073     08F8  28FA               	goto	u390_21
  9074     08F9  28FB               	goto	u390_20
  9075     08FA                     u390_21:
  9076     08FA  28F1               	goto	i1l330
  9077     08FB                     u390_20:
  9078     08FB                     i1l332:
  9079                           
  9080                           ;EEPROM.c: 8:     EECON1bits.EEPGD = 0;
  9081     08FB  138C               	bcf	12,7	;volsfr
  9082     08FC                     i1l2895:
  9083                           
  9084                           ;EEPROM.c: 9:     EEADR = adress;
  9085     08FC  0870               	movf	EEPROM_Read@adress,w
  9086     08FD  1283               	bcf	3,5	;RP0=0, select bank2
  9087     08FE  1703               	bsf	3,6	;RP1=1, select bank2
  9088     08FF  008D               	movwf	13	;volatile
  9089     0900                     i1l2897:
  9090                           
  9091                           ;EEPROM.c: 10:     EECON1bits.RD = 1;
  9092     0900  1683               	bsf	3,5	;RP0=1, select bank3
  9093     0901  1703               	bsf	3,6	;RP1=1, select bank3
  9094     0902  140C               	bsf	12,0	;volsfr
  9095                           
  9096                           ;EEPROM.c: 11:     return EEDAT;
  9097     0903  1283               	bcf	3,5	;RP0=0, select bank2
  9098     0904  1703               	bsf	3,6	;RP1=1, select bank2
  9099     0905  080C               	movf	12,w	;volatile
  9100     0906                     i1l333:
  9101     0906  0008               	return
  9102     0907                     __end_of_EEPROM_Read:
  9103     007E                     btemp	set	126	;btemp
  9104     007E                     wtemp0	set	126
  9105                           
  9106                           	psect	idloc
  9107                           
  9108                           ;Config register IDLOC0 @ 0x2000
  9109                           ;	unspecified, using default values
  9110     2000                     	org	8192
  9111     2000  3FFF               	dw	16383
  9112                           
  9113                           ;Config register IDLOC1 @ 0x2001
  9114                           ;	unspecified, using default values
  9115     2001                     	org	8193
  9116     2001  3FFF               	dw	16383
  9117                           
  9118                           ;Config register IDLOC2 @ 0x2002
  9119                           ;	unspecified, using default values
  9120     2002                     	org	8194
  9121     2002  3FFF               	dw	16383
  9122                           
  9123                           ;Config register IDLOC3 @ 0x2003
  9124                           ;	unspecified, using default values
  9125     2003                     	org	8195
  9126     2003  3FFF               	dw	16383
  9127                           
  9128                           	psect	config
  9129                           
  9130                           ;Config register CONFIG1 @ 0x2007
  9131                           ;	Oscillator Selection bits
  9132                           ;	FOSC = INTRC_NOCLKOUT, INTOSCIO oscillator: I/O function on RA6/OSC2/CLKOUT pin, I/O f
      +                          unction on RA7/OSC1/CLKIN
  9133                           ;	Watchdog Timer Enable bit
  9134                           ;	WDTE = OFF, WDT disabled and can be enabled by SWDTEN bit of the WDTCON register
  9135                           ;	Power-up Timer Enable bit
  9136                           ;	PWRTE = OFF, PWRT disabled
  9137                           ;	RE3/MCLR pin function select bit
  9138                           ;	MCLRE = OFF, RE3/MCLR pin function is digital input, MCLR internally tied to VDD
  9139                           ;	Code Protection bit
  9140                           ;	CP = OFF, Program memory code protection is disabled
  9141                           ;	Data Code Protection bit
  9142                           ;	CPD = OFF, Data memory code protection is disabled
  9143                           ;	Brown Out Reset Selection bits
  9144                           ;	BOREN = OFF, BOR disabled
  9145                           ;	Internal External Switchover bit
  9146                           ;	IESO = OFF, Internal/External Switchover mode is disabled
  9147                           ;	Fail-Safe Clock Monitor Enabled bit
  9148                           ;	FCMEN = OFF, Fail-Safe Clock Monitor is disabled
  9149                           ;	Low Voltage Programming Enable bit
  9150                           ;	LVP = OFF, RB3 pin has digital I/O, HV on MCLR must be used for programming
  9151                           ;	In-Circuit Debugger Mode bit
  9152                           ;	DEBUG = 0x1, unprogramme  9153     2007                     	org	8199
  9154     2007  20D4               	dw	8404
  9155                           
  9156                           ;Config register CONFIG2 @ 0x2008
  9157                           ;	Brown-out Reset Selection bit
  9158                           ;	BOR4V = BOR40V, Brown-out Reset set to 4.0V
  9159                           ;	Flash Program Memory Self Write Enable bits
  9160                           ;	WRT = OFF, Write protection off
  9161     2008                     	org	8200
  9162     2008  3FFF               	dw	16383

Data Sizes:
    Strings     223
    Constant    0
    Data        3
    BSS         15
    Persistent  0
    Stack       0

Auto Spaces:
    Space          Size  Autos    Used
    COMMON           14     14      14
    BANK0            80     80      80
    BANK1            80     24      25
    BANK3            96     72      89
    BANK2            96      2       2

Pointer List with Targets:

    utoa@buf	PTR unsigned char  size(1) Largest target is 12
		 -> isr@numStr(BANK3[12]), 

    sp__utoa	PTR unsigned char  size(1) Largest target is 12
		 -> isr@numStr(BANK3[12]), 

    itoa@buf	PTR unsigned char  size(1) Largest target is 12
		 -> isr@numStr(BANK3[12]), 

    itoa@cp	PTR unsigned char  size(1) Largest target is 12
		 -> isr@numStr(BANK3[12]), 

    atoi@s	PTR const unsigned char  size(1) Largest target is 50
		 -> isr@buffer(BANK3[50]), 

    string_to_int@str	PTR unsigned char  size(1) Largest target is 50
		 -> isr@buffer(BANK3[50]), 

    Recibir_Texto@Output	PTR unsigned char  size(1) Largest target is 50
		 -> isr@buffer(BANK3[50]), Selector(BANK3[1]), 

    Enviar_Texto@text	PTR unsigned char  size(2) Largest target is 74
		 -> STR_9(CODE[7]), STR_8(CODE[2]), isr@numStr(BANK3[12]), STR_7(CODE[19]), 
		 -> STR_6(CODE[52]), STR_5(CODE[17]), STR_4(CODE[18]), STR_3(CODE[21]), 
		 -> STR_2(CODE[74]), STR_1(CODE[15]), 

    sp__itoa	PTR unsigned char  size(1) Largest target is 12
		 -> isr@numStr(BANK3[12]), 


Critical Paths under _main in COMMON

    None.

Critical Paths under _isr in COMMON

    _isr->_itoa
    _string_to_int->_atoi
    _atoi->___wmul
    _map->___xxtofl
    ___fltol->___xxtofl
    ___flmul->___xxtofl
    ___fldiv->___xxtofl
    ___fladd->___xxtofl
    _itoa->_utoa
    _utoa->___lwdiv

Critical Paths under _main in BANK0

    None.

Critical Paths under _isr in BANK0

    _map->___fltol
    ___fltol->___fladd
    ___flmul->___fldiv
    ___fladd->___flmul
    _itoa->_utoa

Critical Paths under _main in BANK1

    _ADC_Change->_ADC_Select

Critical Paths under _isr in BANK1

    _isr->_PWM_duty
    _map->___fltol
    _PWM_duty->_map

Critical Paths under _main in BANK3

    None.

Critical Paths under _isr in BANK3

    None.

Critical Paths under _main in BANK2

    _main->_PWM_config
    _ADC_Change->_ADC_Select

Critical Paths under _isr in BANK2

    None.

Call Graph Tables:

 ---------------------------------------------------------------------------------
 (Depth) Function   	        Calls       Base Space   Used Autos Params    Refs
 ---------------------------------------------------------------------------------
 (0) _main                                                 0     0      0     578
                         _ADC_Change
                            _ADC_Int
                     _ADC_Isr_Enable
              _EUSART_Disable_RX_Isr
              _EUSART_Disable_TX_Isr
                        _EUSART_Init
                         _Int_Enable
                     _PWM_Enable_Mux
                         _PWM_config
                              _Setup
 ---------------------------------------------------------------------------------
 (1) _Setup                                                0     0      0       0
 ---------------------------------------------------------------------------------
 (1) _PWM_config                                           3     1      2     164
                                             21 BANK1      1     1      0
                                              0 BANK2      2     0      2
 ---------------------------------------------------------------------------------
 (1) _PWM_Enable_Mux                                       0     0      0       0
 ---------------------------------------------------------------------------------
 (1) _Int_Enable                                           0     0      0       0
 ---------------------------------------------------------------------------------
 (1) _EUSART_Init                                          0     0      0       0
 ---------------------------------------------------------------------------------
 (1) _EUSART_Disable_TX_Isr                                0     0      0       0
 ---------------------------------------------------------------------------------
 (1) _EUSART_Disable_RX_Isr                                0     0      0       0
 ---------------------------------------------------------------------------------
 (1) _ADC_Isr_Enable                                       0     0      0       0
 ---------------------------------------------------------------------------------
 (1) _ADC_Int                                              1     1      0      22
                                             21 BANK1      1     1      0
 ---------------------------------------------------------------------------------
 (1) _ADC_Change                                           0     0      0     392
                         _ADC_Select
 ---------------------------------------------------------------------------------
 (2) _ADC_Select                                           5     3      2     392
                                             21 BANK1      3     3      0
                                              0 BANK2      2     0      2
 ---------------------------------------------------------------------------------
 Estimated maximum stack depth 2
 ---------------------------------------------------------------------------------
 (Depth) Function   	        Calls       Base Space   Used Autos Params    Refs
 ---------------------------------------------------------------------------------
 (3) _isr                                                 79    79      0   16897
                                             14 BANK1      7     7      0
                                              0 BANK3     72    72      0
                        _EEPROM_Read
                       _EEPROM_Write
                       _Enviar_Texto
             _PWM_Mux_Channel_Select
                           _PWM_duty
                      _Recibir_Texto
                               _itoa
                                _map
                      _string_to_int
 ---------------------------------------------------------------------------------
 (4) _string_to_int                                        3     1      2     628
                                              0 BANK0      3     1      2
                               _atoi
 ---------------------------------------------------------------------------------
 (5) _atoi                                                 8     6      2     573
                                              6 COMMON     8     6      2
                             ___wmul
                            _isdigit
 ---------------------------------------------------------------------------------
 (6) _isdigit                                              2     2      0      68
                                              0 COMMON     2     2      0
 ---------------------------------------------------------------------------------
 (6) ___wmul                                               6     2      4     244
                                              0 COMMON     6     2      4
 ---------------------------------------------------------------------------------
 (4) _map                                                  7     1      6   10685
                                              2 BANK1      7     1      6
                        _EEPROM_Read (ARG)
                            ___fladd
                            ___fldiv
                            ___flmul
                            ___fltol
                           ___xxtofl
 ---------------------------------------------------------------------------------
 (5) ___xxtofl                                            14    10      4     626
                                              0 COMMON    14    10      4
 ---------------------------------------------------------------------------------
 (5) ___fltol                                             10     6      4     305
                                             72 BANK0      8     4      4
                                              0 BANK1      2     2      0
                            ___fladd (ARG)
                            ___fldiv (ARG)
                            ___flmul (ARG)
                           ___xxtofl (ARG)
 ---------------------------------------------------------------------------------
 (5) ___flmul                                             26    18      8    2417
                                             26 BANK0     26    18      8
                          __Umul8_16
                            ___fldiv (ARG)
                           ___xxtofl (ARG)
 ---------------------------------------------------------------------------------
 (6) __Umul8_16                                            9     7      2     799
                                              0 COMMON     9     7      2
 ---------------------------------------------------------------------------------
 (5) ___fldiv                                             26    18      8    1273
                                              0 BANK0     26    18      8
                           ___xxtofl (ARG)
 ---------------------------------------------------------------------------------
 (5) ___fladd                                             20    12      8    2262
                                             52 BANK0     20    12      8
                            ___fldiv (ARG)
                            ___flmul (ARG)
                           ___xxtofl (ARG)
 ---------------------------------------------------------------------------------
 (4) _itoa                                                 7     3      4    1612
                                             13 COMMON     1     1      0
                                              4 BANK0      5     1      4
                               _utoa
 ---------------------------------------------------------------------------------
 (5) _utoa                                                 9     5      4    1264
                                              8 COMMON     5     1      4
                                              0 BANK0      4     4      0
                            ___lwdiv
                            ___lwmod
 ---------------------------------------------------------------------------------
 (6) ___lwmod                                              6     2      4     311
                                              0 COMMON     6     2      4
 ---------------------------------------------------------------------------------
 (6) ___lwdiv                                              8     4      4     466
                                              0 COMMON     8     4      4
 ---------------------------------------------------------------------------------
 (4) _Recibir_Texto                                        6     4      2     396
                                              0 COMMON     6     4      2
 ---------------------------------------------------------------------------------
 (4) _PWM_duty                                             5     3      2    1066
                                              9 BANK1      5     3      2
                        _EEPROM_Read (ARG)
                                _map (ARG)
 ---------------------------------------------------------------------------------
 (4) _PWM_Mux_Channel_Select                               2     0      2    1000
                                              0 COMMON     2     0      2
 ---------------------------------------------------------------------------------
 (5) _Enviar_Texto                                         2     0      2     805
                                              0 COMMON     2     0      2
 ---------------------------------------------------------------------------------
 (4) _EEPROM_Write                                         2     1      1     348
                                              0 COMMON     2     1      1
 ---------------------------------------------------------------------------------
 (4) _EEPROM_Read                                          1     1      0      22
                                              0 COMMON     1     1      0
 ---------------------------------------------------------------------------------
 Estimated maximum stack depth 6
 ---------------------------------------------------------------------------------

 Call Graph Graphs:

 _main (ROOT)
   _ADC_Change
     _ADC_Select
   _ADC_Int
   _ADC_Isr_Enable
   _EUSART_Disable_RX_Isr
   _EUSART_Disable_TX_Isr
   _EUSART_Init
   _Int_Enable
   _PWM_Enable_Mux
   _PWM_config
   _Setup

 _isr (ROOT)
   _EEPROM_Read
   _EEPROM_Write
   _Enviar_Texto
   _PWM_Mux_Channel_Select
   _PWM_duty
     _EEPROM_Read (ARG)
     _map (ARG)
       _EEPROM_Read (ARG)
       ___fladd (ARG)
         ___fldiv (ARG)
           ___xxtofl (ARG)
         ___flmul (ARG)
           __Umul8_16
           ___fldiv (ARG)
           ___xxtofl (ARG)
         ___xxtofl (ARG)
       ___fldiv (ARG)
       ___flmul (ARG)
       ___fltol (ARG)
         ___fladd (ARG)
         ___fldiv (ARG)
         ___flmul (ARG)
         ___xxtofl (ARG)
       ___xxtofl (ARG)
   _Recibir_Texto
   _itoa
     _utoa
       ___lwdiv
       ___lwmod
   _map
   _string_to_int
     _atoi
       ___wmul
       _isdigit

 Address spaces:
Name               Size   Autos  Total    Cost      Usage
BANK3               60     48      59       9       92.7%
BITBANK3            60      0       0       8        0.0%
SFR3                 0      0       0       4        0.0%
BITSFR3              0      0       0       4        0.0%
BANK2               60      2       2      11        2.1%
BITBANK2            60      0       0      10        0.0%
SFR2                 0      0       0       5        0.0%
BITSFR2              0      0       0       5        0.0%
BANK1               50     18      19       7       31.2%
BITBANK1            50      0       0       6        0.0%
SFR1                 0      0       0       2        0.0%
BITSFR1              0      0       0       2        0.0%
BANK0               50     50      50       5      100.0%
BITBANK0            50      0       0       4        0.0%
SFR0                 0      0       0       1        0.0%
BITSFR0              0      0       0       1        0.0%
COMMON               E      E       E       1      100.0%
BITCOMMON            E      0       0       0        0.0%
CODE                 0      0       0       0        0.0%
DATA                 0      0      D2      12        0.0%
ABS                  0      0      D2       3        0.0%
NULL                 0      0       0       0        0.0%
STACK                0      0       0       2        0.0%
EEDATA             100      0       0       0        0.0%


Microchip Technology PIC Macro Assembler V2.40 build 20220703182018 
Symbol Table                                                                                   Wed May 31 20:26:47 2023

                  ___fldiv@aexp 0039                    ___fldiv@bexp 0038                               pc 0002  
                  ___fldiv@sign 0031                              fsr 0004             ___wmul@multiplicand 0072  
           __Umul8_16@word_mpld 0076                             l222 07FF                             l231 13A9  
                           l151 14D0                             l304 13AD                             l161 1648  
                           l234 13A5                             l154 13BB                             l158 164F  
                           l190 13DC                             l167 1648                             l193 0981  
                           l169 164E                             l196 13B4                             l293 1711  
                           l295 1715                             l296 1716                             _GIE 005F  
                           _RB0 0030                             _RB1 0031                             _RB2 0032  
                           _PR2 0092                             _map 0982                      _PWM_config 16B1  
                           _isr 0040                             fsr0 0004                             indf 0000  
               __end_of_ADC_Int 13DD                   ?_Enviar_Texto 0070                    ___flmul@aexp 004C  
                  ___flmul@bexp 004D                    ___flmul@sign 0047                    ___flmul@temp 0052  
                  ___flmul@prod 004E  __end_of_PWM_Mux_Channel_Select 153E                    ?_EUSART_Init 0070  
                  ___fltol@exp1 00A1                            l3001 16ED                            l3011 1710  
                          l3003 16F3                            l3021 13D3                            l3005 16FA  
                          l3023 13DA                            l3031 07EB                            l3007 1700  
                          l3025 13DB                            l3041 07F9                            l3033 07ED  
                          l3017 13AA                            l3009 170C                            l2219 0907  
                          l3019 13CF                            l3027 13AE                            l3051 13A2  
                          l3043 07FA                            l3035 07F0                            l3045 07FB  
                          l3037 07F3                            l3029 07E8                            l3047 07FC  
                          l3039 07F6                            l3049 13A6                            l3251 157D  
                          l3261 159E                            l3253 1582                            l3263 15A3  
                          l3255 158E                            l3265 15A8                            l3257 1593  
                          l3249 1578                            l3267 15AD                            l3259 1599  
                          l3289 16D4                            l2931 14A4                            l2941 14B8  
                          l2933 14A5                            ?_map 00A2                            l2951 14C9  
                          l2943 14B9                            l2935 14AC                            l2961 13B5  
                          l2953 14CC                            l2945 14BC                            l2937 14B0  
                          l2929 14A0                            l2971 1608                            l2963 15FA  
                          l2955 14CD                            l2947 14C3                            l2939 14B4  
                          l2981 1636                            l2973 1613                            l2957 14CE  
                          l2949 14C6                            l2983 163C                            l2975 1618  
                          l2991 16C3                            l2959 14CF                            l2977 1624  
                          l2969 1601                            l2993 16C8                            l2985 16B4  
                          l2979 162A                            l2987 16B9                            l2995 16CD  
                          l2989 16BE                            l2997 16DF                            l2999 16E4  
                          _ADIE 0466                            _ADIF 0066                            ?_isr 0070  
                          STR_1 08D9                            STR_2 0810                            STR_3 088E  
                          STR_4 08B6                            STR_5 08C8                            STR_6 085A  
                          STR_7 08A3                            STR_8 08B4                            STR_9 08E8  
                          _T0IE 005D                            _T0IF 005A                            _IOCB 0096  
                          u4000 164E                            u4001 164D                            u4010 16E4  
                          u4011 16E3                            u4020 16F3                            u4021 16F2  
                          u4030 1700                            u4031 16FF                            u4040 1715  
                          u4041 1714                            _PEIE 005E                            _RBIE 005B  
                          _RBIF 0058                            _RCIF 0065                            u3950 1600  
                          u3951 15FF                            u3960 1608                            u3961 1607  
                          u3970 1618                            u3971 1617                            u3980 162A  
                          u3981 1629                            u3990 163C                            u3991 163B  
                   _Bandera_ADC 01E5                            _TXIF 0064                            _atoi 1785  
                          _main 1578                            _itoa 140A                            map@x 00A8  
                          btemp 007E                            _utoa 1717                            isr@i 01D6  
                          start 0012                 ___fldiv@new_exp 0032            __end_of_EEPROM_Write 140A  
                         ??_map 007E                           ??_isr 00AE              ADC_Int@ADFM_Select 00B5  
                 ___fltol@sign1 00A0                           ?_atoi 0076                 __end_of___fladd 075A  
                         ?_main 0070                 __end_of___fldiv 0CBB                           ?_itoa 0024  
                         _EEADR 010D                           _EEDAT 010C                 __end_of___flmul 1000  
               __end_of___fltol 07E8                           _ANSEL 0188                           ?_utoa 0078  
 PWM_Mux_Channel_Select@channel 0070                 __end_of___lwdiv 15FA                           i1l130 01CB  
                         i1l301 16B0                           i1l125 01D7                           i1l135 034C  
                         i1l313 153D                           i1l330 08F1                           i1l243 1478  
                         i1l332 08FB                           i1l148 04F5                           i1l333 0906  
                         i1l317 153D                           i1l253 1506                           i1l246 14F5  
                         i1l239 1454                           i1l336 13F0                           i1l248 14D5  
                         i1l256 13CB                 __end_of___lwmod 1578                           i1l425 143A  
                         i1l338 13F6                           i1l339 1409                           i1l611 07E7  
                         i1l259 0A2F                           i1l427 1452                           i1l621 07E7  
                         i1l722 05E0                           i1l618 07D0                           i1l299 1677  
                         i1l707 1577                           i1l731 0759                           i1l724 05B9  
                         i1l820 0F6F                           i1l718 055D                           i1l814 0FFF  
                         i1l743 06CD                           i1l760 074F                           i1l752 072D  
                         i1l905 176F                           i1l761 0759                           i1l833 148D  
                         i1l826 0FF3                           i1l907 1784                           i1l739 06A9  
                         i1l835 149F                           i1l860 0AE7                           i1l749 06EF  
                         i1l790 0C30                           i1l774 0B3E                           i1l871 0AB1  
                         i1l776 0CBA                           i1l872 0ABD                           i1l864 0A95  
                         i1l697 15F9                           i1l858 0A52                           i1l796 0CA2  
                         i1l893 13EE                           i1l798 0CB0                           i1l888 17FF  
                         i1l899 142D                           _RCREG 001A                           _SPBRG 0099  
                         _PORTA 0005                           _PORTB 0006                           _PORTC 0007  
                         _PORTD 0008                           _PORTE 0009                           _TRISA 0085  
                         _TRISB 0086                           _TRISC 0087                           _TRISD 0088  
                         _TRISE 0089               PWM_config@periodo 0110                           _TXREG 0019  
                ??_Enviar_Texto 0072                           _Setup 14A0                 __end_of_isdigit 13EF  
                         map@x0 00A2                           map@x1 00A3                           map@y0 00A4  
                         map@y1 00A6                           atoi@a 007B                           atoi@s 007D  
                         pclath 000A                __end_of_PWM_duty 16B1                           utoa@c 0022  
                         utoa@v 0020                           status 0003                           wtemp0 007E  
              EEPROM_Write@data 0070                      _Int_Enable 13B5                 __initialization 0015  
                _PWM_Enable_Mux 13AA                    __end_of_atoi 1800                    __end_of_main 15B6  
                  __end_of_itoa 142E                    __end_of_utoa 1785                       ??_ADC_Int 00B5  
                        ??_atoi 0078                          ??_main 00B8                          ??_itoa 007D  
                        ??_utoa 007C                     ?_PWM_config 0110                          ?_Setup 0070  
              Enviar_Texto@text 0070                          _ADCON0 001F                          _ADRESH 001E  
                        _CCPR1L 0015                          _CCPR2L 001B                          _EECON2 018D  
                        _ANSELH 0189                    ??_ADC_Change 00B8                          i1l2201 1496  
                        i1l2203 149B                          i1l2131 142E                          i1l2211 13E5  
                        i1l2301 0515                          i1l2141 144E                          i1l2133 1430  
                        i1l2213 13EB                          i1l2221 1786                          i1l3101 015D  
                        i1l2151 15C1                          i1l2311 052D                          i1l2303 051A  
                        i1l2135 1434                          i1l2215 13ED                          i1l2207 13DE  
                        i1l2231 179F                          i1l2223 1787                          i1l3111 0182  
                        i1l3103 0166                          i1l2161 15E7                          i1l2153 15C8  
                        i1l2145 15B6                          i1l2401 0611                          i1l2321 053F  
                        i1l2313 0530                          i1l2305 0522                          i1l2137 1441  
                        i1l2209 13DF                          i1l2233 17A7                          i1l2225 178B  
                        i1l3201 0375                          i1l3113 01A3                          i1l3105 0171  
                        i1l3121 01CB                          i1l2163 15E8                          i1l2155 15CC  
                        i1l2147 15B8                          i1l2171 153E                          i1l2411 0628  
                        i1l2403 0618                          i1l2331 0553                          i1l2323 0540  
                        i1l2315 0536                          i1l2307 0523                          i1l2139 1448  
                        i1l2251 17FB                          i1l2243 17DE                          i1l2235 17B0  
                        i1l2227 1794                          i1l3211 03BD                          i1l3203 037E  
                        i1l3131 01F4                          i1l3123 01CE                          i1l3115 01B3  
                        i1l3107 0176                          i1l2165 15EF                          i1l2157 15D0  
                        i1l2149 15BE                          i1l2181 1556                          i1l2173 1544  
                        i1l2421 068C                          i1l2405 061A                          i1l2413 062D  
                        i1l2341 056D                          i1l2325 0545                          i1l2333 0555  
                        i1l2317 0537                          i1l2309 0525                          i1l2501 0B09  
                        i1l2261 0772                          i1l2245 17EA                          i1l2237 17B8  
                        i1l2229 179C                          i1l3221 0405                          i1l3213 03C6  
                        i1l3141 020D                          i1l3133 01F7                          i1l3125 01D2  
                        i1l3117 01BC                          i1l3109 017C                          i1l3061 006C  
                        i1l3053 0040                          i1l2159 15E1                          i1l2167 15F5  
                        i1l2183 1560                          i1l2175 1547                          i1l2431 06BF  
                        i1l2415 0643                          i1l2423 069B                          i1l2407 061E  
                        i1l2351 0577                          i1l2343 056F                          i1l2335 0563  
                        i1l2327 054A                          i1l2319 053B                          i1l2511 0B20  
                        i1l2503 0B0B                          i1l2271 079C                          i1l2263 0789  
                        i1l2255 075A                          i1l2247 17EF                          i1l2239 17BD  
                        i1l3231 0474                          i1l3223 040D                          i1l3215 03CF  
                        i1l3151 0236                          i1l3143 020E                          i1l3135 01FB  
                        i1l3127 01DB                          i1l3119 01C7                          i1l3071 00A3  
                        i1l3063 0071                          i1l3055 0044                          i1l2185 1566  
                        i1l2177 154E                          i1l2441 06D6                          i1l2433 06C8  
                        i1l2425 06B1                          i1l2417 0681                          i1l2409 061F  
                        i1l2361 0581                          i1l2353 0579                          i1l2345 0571  
                        i1l2337 0567                          i1l2329 0552                          i1l2601 0C4C  
                        i1l2521 0B34                          i1l2513 0B21                          i1l2505 0B13  
                        i1l2193 147A                          i1l2265 078C                          i1l2257 0767  
                        i1l3241 04CC                          i1l3233 047D                          i1l3225 041B  
                        i1l3217 03D7                          i1l3209 0382                          i1l3161 024E  
                        i1l3153 0239                          i1l3145 0218                          i1l3137 0201  
                        i1l3129 01E2                          i1l3081 00D0                          i1l3073 00B3  
                        i1l3065 0075                          i1l3057 004A                          i1l2187 156D  
                        i1l2179 1552                          i1l2451 06E6                          i1l2443 06DB  
                        i1l2435 06CC                          i1l2427 06B6                          i1l2419 0687  
                        i1l2371 058A                          i1l2363 0583                          i1l2355 057B  
                        i1l2347 0573                          i1l2339 056B                          i1l2291 0502  
                        i1l2611 0C95                          i1l2603 0C65                          i1l2515 0B26  
                        i1l2523 0B36                          i1l2507 0B18                          i1l2195 147C  
                        i1l2267 0794                          i1l3235 048B                          i1l3227 043C  
                        i1l3219 03E4                          i1l3171 02B6                          i1l3163 0257  
                        i1l3155 0243                          i1l3147 0222                          i1l3139 020A  
                        i1l3091 011B                          i1l3083 00D6                          i1l3075 00BB  
                        i1l3067 007C                          i1l3059 006B                          i1l2189 1573  
                        i1l2461 0707                          i1l2453 06EC                          i1l2437 06D1  
                        i1l2445 06DD                          i1l2381 05CA                          i1l2373 05A1  
                        i1l2365 0585                          i1l2357 057D                          i1l2349 0575  
                        i1l2293 0507                          i1l2621 0CAC                          i1l2613 0C99  
                        i1l2605 0C6B                          i1l2541 0B7F                          i1l2525 0B46  
                        i1l2533 0B5F                          i1l2517 0B2B                          i1l2509 0B1C  
                        i1l2197 1483                          i1l2701 0E94                          i1l2285 07C1  
                        i1l2277 07A4                          i1l2269 0798                          i1l3237 04B5  
                        i1l3229 0453                          i1l3245 04D0                          i1l3181 030A  
                        i1l3173 02BF                          i1l3165 027B                          i1l3157 0247  
                        i1l3149 022C                          i1l3085 00F7                          i1l3093 0120  
                        i1l3077 00C6                          i1l3069 0082                          i1l2471 073F  
                        i1l2463 070B                          i1l2439 06D4                          i1l2447 06E1  
                        i1l2391 05E9                          i1l2383 05CB                          i1l2375 05BD  
                        i1l2367 0587                          i1l2359 057F                          i1l2295 050B  
                        i1l2615 0CA1                          i1l2607 0C78                          i1l2551 0B9E  
                        i1l2543 0B87                          i1l2535 0B64                          i1l2527 0B52  
                        i1l2519 0B33                          i1l2199 1487                          i1l2711 0F24  
                        i1l2703 0EA2                          i1l2631 0CC4                          i1l2287 07D5  
                        i1l2279 07BA                          i1l3247 04D6                          i1l3239 04C3  
                        i1l3191 0350                          i1l3183 032E                          i1l3175 02CE  
                        i1l3167 0283                          i1l3159 0248                          i1l3095 0126  
                        i1l3087 0107                          i1l3079 00CB                          i1l2481 0754  
                        i1l2473 0744                          i1l2465 0729                          i1l2457 06F4  
                        i1l2449 06E2                          i1l2385 05D4                          i1l2377 05C4  
                        i1l2369 0589                          i1l2297 050F                          i1l2617 0CA6  
                        i1l2609 0C86                          i1l2561 0BD0                          i1l2553 0BB0  
                        i1l2545 0B8F                          i1l2529 0B56                          i1l2721 0F49  
                        i1l2713 0F32                          i1l2705 0ECD                          i1l2641 0CDB  
                        i1l2633 0CC8                          i1l2289 07DA                          i1l2801 0AD5  
                        i1l3193 0357                          i1l3185 0337                          i1l3177 02F2  
                        i1l3169 0292                          i1l3097 012C                          i1l3089 0110  
                        i1l2811 171A                          i1l2483 0758                          i1l2475 0745  
                        i1l2467 0732                          i1l2459 06F9                          i1l2395 05F2  
                        i1l2379 05C6                          i1l2387 05D8                          i1l2299 0510  
                        i1l2619 0CAA                          i1l2571 0BF1                          i1l2563 0BD1  
                        i1l2555 0BB4                          i1l2547 0B97                          i1l2539 0B6D  
                        i1l2491 0AF5                          i1l2731 0F6C                          i1l2715 0F3B  
                        i1l2723 0F4F                          i1l2707 0EF3                          i1l2651 0CF2  
                        i1l2643 0CDD                          i1l2635 0CC9                          i1l2627 0CBB  
                        i1l2803 0ADA                          i1l3195 0360                          i1l3187 0346  
                        i1l3179 02FB                          i1l3099 014D                          i1l2901 14D2  
                        i1l2821 173F                          i1l2813 171E                          i1l2477 0749  
                        i1l2469 0737                          i1l2397 0609                          i1l2389 05E4  
                        i1l2581 0C0A                          i1l2573 0BF3                          i1l2565 0BDF  
                        i1l2557 0BB5                          i1l2549 0B99                          i1l2493 0AF6  
                        i1l2485 0AE8                          i1l2741 0F8B                          i1l2725 0F53  
                        i1l2717 0F3F                          i1l2709 0F1B                          i1l2661 0D07  
                        i1l2653 0CF3                          i1l2645 0CE5                          i1l2637 0CCE  
                        i1l2629 0CC0                          i1l2805 0ADE                          i1l3197 0363  
                        i1l3189 034A                          i1l2903 14DB                          i1l2831 1773  
                        i1l2823 1741                          i1l2815 1731                          i1l2479 074B  
                        i1l2399 060D                          i1l2591 0C2D                          i1l2575 0BFC  
                        i1l2583 0C10                          i1l2559 0BBE                          i1l2567 0BE3  
                        i1l2495 0AFB                          i1l2487 0AED                          i1l2751 0FD1  
                        i1l2743 0FA4                          i1l2735 0F74                          i1l2727 0F54  
                        i1l2719 0F40                          i1l2671 0D22                          i1l2663 0D0F  
                        i1l2655 0CF8                          i1l2647 0CEA                          i1l2639 0CD3  
                        i1l2807 0ADF                          i1l2911 13BF                          i1l3199 036D  
                        i1l2833 1778                          i1l2825 1752                          i1l2817 1735  
                        i1l2921 1416                          i1l2585 0C14                          i1l2577 0C00  
                        i1l2569 0BE9                          i1l2497 0B00                          i1l2489 0AF1  
                        i1l2761 0FEE                          i1l2753 0FDB                          i1l2737 0F79  
                        i1l2745 0FAA                          i1l2729 0F58                          i1l2681 0D9E  
                        i1l2673 0D30                          i1l2665 0D14                          i1l2657 0CFD  
                        i1l2649 0CEE                          i1l2841 0985                          i1l2907 14EF  
                        i1l2835 177A                          i1l2827 1763                          i1l2819 173B  
                        i1l2923 141A                          i1l2915 140D                          i1l2595 0C35  
                        i1l2587 0C15                          i1l2579 0C01                          i1l2499 0B08  
                        i1l2763 0FF7                          i1l2755 0FDD                          i1l2747 0FB7  
                        i1l2739 0F87                          i1l2691 0E0A                          i1l2683 0DBA  
                        i1l2675 0D3D                          i1l2667 0D19                          i1l2659 0D05  
                        i1l2771 0A3A                          i1l2861 1521                          i1l2853 1507  
                        i1l2845 1653                          i1l2909 14FF                          i1l2837 1780  
                        i1l2829 176B                          i1l2925 141F                          i1l2917 140D  
                        i1l2597 0C3A                          i1l2589 0C19                          i1l2757 0FE9  
                        i1l2749 0FC2                          i1l2693 0E18                          i1l2685 0DD6  
                        i1l2677 0D58                          i1l2781 0A66                          i1l2773 0A4A  
                        i1l2871 1458                          i1l2863 1528                          i1l2855 150D  
                        i1l2847 1658                          i1l2919 1411                          i1l2599 0C48  
                        i1l2759 0FED                          i1l2695 0E35                          i1l2687 0DDF  
                        i1l2679 0D74                          i1l2791 0A9C                          i1l2783 0A73  
                        i1l2775 0A5A                          i1l2767 0A31                          u300_20 0B20  
                        i1l2881 13FE                          i1l2873 1462                          i1l2865 152F  
                        i1l2857 1514                          i1l2849 167F                          u300_21 0B1F  
                        i1l2697 0E4C                          i1l2689 0DED                          i1l2793 0AA7  
                        i1l2785 0A7A                          i1l2769 0A36                          i1l2891 08F1  
                        i1l2883 1405                          i1l2875 1468                          i1l2867 1536  
                        i1l2859 151A                          i1l2699 0E69                          i1l2795 0AAB  
                        i1l2787 0A7E                          i1l2779 0A63                          i1l2893 08F7  
                        i1l2885 1406                          i1l2877 13F0                          i1l2869 1453  
                        u220_25 15D1                          i1l2797 0AB5                          i1l2789 0A8C  
                        i1l2895 08FC                          i1l2887 1407                          i1l2879 13F8  
                        i1l2799 0ABF                          u221_20 15E1                          u301_20 0B26  
                        u213_20 1434                          i1l2897 0900                          i1l2889 1408  
                        u221_21 15E0                          u301_21 0B25                          u213_21 1433  
                        u221_25 15DD                          u310_20 0BD0                          u302_20 0B2B  
                        u230_20 1487                          u310_21 0BCF                          u302_21 0B2A  
                        u230_21 1486                          u222_25 15E9                          u310_25 0BCC  
                        u214_25 143B                          u223_20 15F5                          u311_20 0BE9  
                        u303_20 0B46                          u223_21 15F4                          u311_21 0BE8  
                        u303_21 0B45                          u231_25 148E                          u215_25 1442  
                        u224_20 1544                          u320_20 0C3A                          u312_20 0BF1  
                        u304_20 0B64                          u232_20 149B                          u216_20 144E  
                        u240_20 17EF                          u224_21 1543                          u320_21 0C39  
                        u312_21 0BF0                          u304_21 0B63                          u232_21 149A  
                        u216_21 144D                          u240_21 17EE                          u217_20 15BE  
                        u321_20 0C4C                          u305_20 0B9E                          u241_20 0767  
                        u233_20 13E5                          u217_21 15BD                          u321_21 0C4B  
                        u305_21 0B9D                          u241_21 0766                          u233_21 13E4  
                        u225_25 1548                          u313_25 0BF5                          u226_20 1556  
                        u322_20 0C5B                          u314_20 0C00                          u330_20 0CF8  
                        u250_20 07DA                          u242_20 0782                          u234_20 13EB  
                        u410_20 007C                          u226_21 1555                          u314_21 0BFF  
                        u330_21 0CF7                          u250_21 07D9                          u234_21 13EA  
                        u410_21 007B                          u218_25 15C2                          u322_25 0C56  
                        u306_25 0BA0                          u242_25 077D                          u219_20 15D0  
                        u227_20 1560                          u251_20 050F                          u323_20 0C78  
                        u331_20 0CFD                          u243_20 079C                          u235_20 1794  
                        u411_20 00D0                          u219_21 15CF                          u227_21 155F  
                        u251_21 050E                          u323_21 0C77                          u331_21 0CFC  
                        u243_21 079B                          u235_21 1793                          u411_21 00CF  
                        u227_25 155C                          u323_25 0C74                          u315_25 0C03  
                        u307_25 0BA9                          u260_20 05A1                          u252_20 0515  
                        u324_20 0C95                          u316_20 0C14                          u308_20 0BB4  
                        u332_20 0D14                          u244_20 07A3                          u236_20 179C  
                        u420_20 0357                          u412_20 0126                          u260_21 05A0  
                        u252_21 0514                          u324_21 0C94                          u316_21 0C13  
                        u308_21 0BB3                          u340_21 0E27                          u332_21 0D13  
                        u244_21 07A2                          u236_21 179B                          u420_21 0356  
                        u412_21 0125                          u340_22 0E2E                          u340_23 0E35  
                        u228_25 1567                          u260_25 059D                          u324_25 0C91  
                        u229_20 1573                          u261_20 05AC                          u253_20 051A  
                        u325_20 0CAA                          u317_20 0C19                          u333_20 0D19  
                        u237_20 17A7                          u421_20 0375                          u413_20 017C  
                        u405_20 0044                          u229_21 1572                          u261_21 05AA  
                        u253_21 0519                          u325_21 0CA9                          u317_21 0C18  
                        u333_21 0D18                          u237_21 17A6                          u421_21 0374  
                        u413_21 017B                          u405_21 0043                          u309_25 0BB7  
                        u341_25 0E37                          u245_25 07A5                          u270_20 060D  
                        u262_20 05AD                          u254_20 0536                          u318_20 0C2D  
                        u326_20 0CC8                          u246_20 07B9                          u238_20 17B8  
                        u422_20 03E4                          u414_20 01DB                          u406_20 004A  
                        u270_21 060C                          u254_21 0535                          u318_21 0C2C  
                        u342_21 0E5B                          u334_21 0D66                          u326_21 0CC7  
                        u246_21 07B8                          u238_21 17B7                          u422_21 03E3  
                        u414_21 01DA                          u406_21 0049                          u342_22 0E62  
                        u334_22 0D6D                          u342_23 0E69                          u334_23 0D74  
                        u350_25 0F34                          u422_25 03E0                          u430_27 02C7  
                        u271_20 0611                          u263_20 05BD                          u255_20 053F  
                        u319_20 0C34                          u351_20 0F3F                          u327_20 0CCE  
                        u247_20 07C0                          u239_20 17EA                          u423_20 04D6  
                        u415_20 01E2                          u271_21 0610                          u263_21 05BC  
                        u255_21 053E                          u319_21 0C33                          u351_21 0F3E  
                        u343_21 0E86                          u335_21 0D82                          u327_21 0CCD  
                        u247_21 07BF                          u239_21 17E9                          u423_21 04D5  
                        u415_21 01E1                          u343_22 0E8D                          u335_22 0D89  
                        u343_23 0E94                          u335_23 0D90                          u407_24 005E  
                        u407_25 005C                          u431_27 0303                          u272_20 061E  
                        u264_20 05CA                          u256_20 0545                          u360_20 0FB7  
                        u328_20 0CD3                          u416_20 01FB                          u408_20 0071  
                        u272_21 061D                          u264_21 05C9                          u256_21 0544  
                        u360_21 0FB6                          u344_21 0EB1                          u336_21 0DAC  
                        u328_21 0CD2                          u416_21 01FA                          u408_21 0070  
                        u344_22 0EB8                          u336_22 0DB3                          u344_23 0EBF  
                        u336_23 0DBA                          u424_24 04E8                          u280_25 06C1  
                        u360_25 0FB3                          u352_25 0F42                          u248_25 07C5  
                        u424_25 04E6                          u432_27 033F                          u281_20 06CC  
                        u257_20 054A                          u361_20 0FD1                          u353_20 0F53  
                        u345_20 0ED9                          u329_20 0CF2                          u249_20 07D5  
                        u417_20 0201                          u409_20 0075                          u281_21 06CB  
                        u257_21 0549                          u361_21 0FD0                          u353_21 0F52  
                        u337_21 0DC8                          u329_21 0CF1                          u249_21 07D4  
                        u417_21 0200                          u409_21 0074                          u337_22 0DCF  
                        u337_23 0DD6                          u273_25 0621                          u265_25 05CD  
                        u361_25 0FCD                          u345_25 0ED4                          u433_27 0415  
                        u425_27 00C1                          u290_20 071A                          u282_20 06D1  
                        u274_20 0643                          u266_20 05E0                          u258_20 0563  
                        u362_20 0FED                          u354_20 0F58                          u418_20 024E  
                        u282_21 06D0                          u274_21 0642                          u266_21 05DF  
                        u258_21 0562                          u362_21 0FEC                          u354_21 0F57  
                        u346_21 0EE5                          u418_21 024D                          u346_22 0EEC  
                        u274_23 063F                          u346_23 0EF3                          u290_25 0715  
                        u338_25 0DD8                          u370_25 0AA0                          u434_27 044D  
                        u426_27 0116                          u291_20 0729                          u283_20 06DB  
                        u267_20 05E4                          u259_20 0567                          u355_20 0F6C  
                        u347_20 0F01                          u371_20 0AAB                          u363_20 0A36  
                        u419_20 0350                          u291_21 0728                          u283_21 06DA  
                        u275_21 065A                          u267_21 05E3                          u259_21 0566  
                        u355_21 0F6B                          u339_21 0DFC                          u371_21 0AAA  
                        u363_21 0A35                          u419_21 034F                          u275_22 065B  
                        u339_22 0E03                          u275_23 0660                          u339_23 0E0A  
                        u275_24 0661                          u275_25 0666                          u347_25 0EFC  
                        u275_26 0667                          u435_27 0485                          u427_27 016C  
                        u380_20 1658                          u292_20 0732                          u284_20 06E1  
                        u276_20 066E                          u268_20 05E9                          u356_20 0F73  
                        u372_20 0AB1                          u364_20 0A3A                          u380_21 1657  
                        u292_21 0731                          u284_21 06E0                          u276_21 066F  
                        u268_21 05E8                          u356_21 0F72                          u348_21 0F0D  
                        u372_21 0AB0                          u364_21 0A39                          u276_22 0674  
                        u348_22 0F14                          u276_23 0675                          u348_23 0F1B  
                        u436_27 04BD                          u428_27 01C2                          u381_20 167F  
                        u293_20 0737                          u285_20 06E6                          u277_20 068C  
                        u357_20 0F79                          u373_20 0AB5                          u365_20 0A5A  
                        u381_21 167E                          u293_21 0736                          u285_21 06E5  
                        u277_21 068B                          u269_21 05FB                          u357_21 0F78  
                        u373_21 0AB4                          u365_21 0A59                          u269_22 0602  
                        u269_23 0609                          u349_25 0F1D                          u429_27 028B  
                        u390_20 08FB                          u382_20 150D                          u294_20 0744  
                        u286_20 06EC                          u278_20 06B1                          u358_20 0F8B  
                        u374_20 0ACA                          u390_21 08FA                          u382_21 150C  
                        u294_21 0743                          u286_21 06EB                          u278_21 06B0  
                        u358_21 0F8A                          u374_25 0AC5                          u366_25 0A6B  
                        u383_20 151A                          u391_20 14DB                          u295_20 0749  
                        u287_20 06F3                          u279_20 06B6                          u359_20 0F9A  
                        u375_20 0ADA                          u367_20 0A79                          u383_21 1519  
                        u391_21 14DA                          u295_21 0748                          u287_21 06F2  
                        u279_21 06B5                          u375_21 0AD9                          u367_21 0A78  
                        u359_25 0F95                          u384_20 1528                          u392_20 14EE  
                        u296_20 0758                          u288_20 06F9                          u376_20 0ADE  
                        u384_21 1527                          u392_21 14ED                          u296_21 0757  
                        u288_21 06F8                          u376_21 0ADD                          u368_25 0A8D  
                        u385_20 1536                          u393_20 14FF                          u377_20 173B  
                        u289_20 070B                          u297_20 0AF5                          u369_20 0A9B  
                        u385_21 1535                          u393_21 14FE                          u377_21 173A  
                        u289_21 070A                          u297_21 0AF4                          u369_21 0A9A  
                        u393_25 14FB                          u386_20 1458                          u378_20 176B  
                        u394_20 1411                          u298_20 0AFB                          u386_21 1457  
                        u378_21 176A                          u394_21 1410                          u298_21 0AFA  
                        u387_20 1478                          u379_20 1780                          u299_20 0B00  
                        u387_21 1477                          u379_21 177F                          u299_21 0AFF  
                        u388_20 13F6                          u388_21 13F5                          u389_20 08F7  
                        u389_21 08F6                          _SPBRGH 009A                    ??_ADC_Select 00B5  
              __end_of___xxtofl 0AE8                          _Flag_1 01E4                          _Flag_2 01E8  
                        _Flag_3 01E7          __end_of_PWM_Enable_Mux 13AE                      _Servo1_Val 01E2  
                    _Servo2_Val 01E0                      _Servo3_Val 01DE                      _Servo4_Val 01DC  
                     ??___fladd 005C                          ___wmul 142E                       ??___fldiv 0028  
                     ??___flmul 0042                       ??___fltol 006C                       ??___lwdiv 0074  
                     ??___lwmod 0074              __end_of_ADC_Change 1650                       ??_isdigit 0070  
            __end_of_ADC_Select 0982                          saved_w 007E                    ___xxtofl@arg 007A  
                  ___xxtofl@exp 0079                    ___xxtofl@val 0070         __end_of__initialization 003C  
                    ___fltol@f1 0068                   _Recibir_Texto 14D1                     ?_Int_Enable 0070  
               ?_PWM_Enable_Mux 0070            __end_of_Enviar_Texto 1479                  __pcstackCOMMON 0070  
                 __end_of_Setup 14D1                    __pidataBANK1 0003                    __pidataBANK3 13A0  
         _EUSART_Disable_RX_Isr 13A2           _EUSART_Disable_TX_Isr 13A6                       ?_PWM_duty 00A9  
                _OPTION_REGbits 0081                   _string_to_int 13BC                         ??_Setup 00B5  
                  _EEPROM_Write 13EF                      __pbssBANK3 01D8                  ?_Recibir_Texto 0070  
             __end_of__Umul8_16 14A0                      __pmaintext 1578                         ?___wmul 0070  
                    __pintentry 0004                         _CCP1CON 0017                         _CCP2CON 001D  
                       _ADC_Int 13CC                      ??_PWM_duty 00AB                       ?___xxtofl 0070  
                ?_string_to_int 0020                    PWM_duty@duty 00A9                      __stringtab 0800  
                       ___fladd 0502                         ___fldiv 0AE8                         ___flmul 0CBB  
                       ___fltol 075A          ?_EUSART_Disable_RX_Isr 0070          ?_EUSART_Disable_TX_Isr 0070  
                       ___lwdiv 15B6                         ___lwmod 153E                         __ptext1 14A0  
                       __ptext2 16B1                         __ptext3 13AA                         __ptext4 13B5  
                       __ptext5 07E8                         __ptext6 13A6                         __ptext7 13A2  
                       __ptext8 13AE                         __ptext9 13CC                    ??_PWM_config 00B5  
                     _T2CONbits 0012                         _isdigit 13DD                      ??___xxtofl 0074  
          end_of_initialization 003C                 ??_Recibir_Texto 0072                   ??_EEPROM_Read 0070  
                       itoa@buf 0028                         itoa@val 0024              __end_of_PWM_config 1717  
                     _RCSTAbits 0018                         utoa@buf 0023                         utoa@val 0078  
                     _PORTBbits 0006             Recibir_Texto@Output 0073                       _PORTDbits 0008  
      ??_PWM_Mux_Channel_Select 0072                 ??_string_to_int 007E                     ___fladd@grs 0067  
                 ___xxtofl@sign 0078              EEPROM_Write@adress 0071                    _Enviar_Texto 1453  
                   ___fldiv@grs 0034                     ___fldiv@rem 002D                ??_PWM_Enable_Mux 00B5  
                   ___flmul@grs 0048                     _CCP1CONbits 0017                     _CCP2CONbits 001D  
                     _TXSTAbits 0098                    ??_Int_Enable 00B5             __end_of_EEPROM_Read 0907  
                __end_of___wmul 1453                  _ADC_Isr_Enable 13AE             start_initialization 0015  
                   __end_of_map 0A30                     __end_of_isr 0502                   ??_EUSART_Init 00B5  
            __end_of_Int_Enable 13BC                  Recibir_Texto@i 0074                      isr@numbers 01CE  
                      ??___wmul 0074                       _Servo_Pos 01D8          __end_of_ADC_Isr_Enable 13B5  
                     __Umul8_16 1479                     __pdataBANK1 00B8                     __pdataBANK3 01E7  
                      ?_ADC_Int 0070                       ___fladd@a 0058                       ___fladd@b 0054  
                     ___fldiv@a 0020                       ___fldiv@b 0024                       ___flmul@a 003E  
                     ___flmul@b 003A                       ___latbits 0002                   __pcstackBANK0 0020  
                 __pcstackBANK1 00A0                   __pcstackBANK2 0110                   __pcstackBANK3 0190  
                  _isdigit$1220 0070               ADC_Select@channel 0110                     _EEPROM_Read 08F0  
           __end_of_EUSART_Init 0800         ??_EUSART_Disable_RX_Isr 00B5         ??_EUSART_Disable_TX_Isr 00B5  
              ___lwdiv@dividend 0072                        ?___fladd 0054                        ?___fldiv 0020  
                      ?___flmul 003A                        ?___fltol 0068                      ?__Umul8_16 0070  
                      ?___lwdiv 0070                        ?___lwmod 0070                 ?_ADC_Isr_Enable 0070  
                     __pstrings 0800                        ?_isdigit 0070                ___lwdiv@quotient 0075  
             interrupt_function 0004                  ___wmul@product 0074          _PWM_Mux_Channel_Select 1507  
                      _PIE1bits 008C                        _PIR1bits 000C                   PWM_duty@canal 00AD  
                      _TMR0_Pre 00B8                      _ADCON0bits 001F                     __stringbase 080F  
                    _ADCON1bits 009F               ___wmul@multiplier 0070                        _PWM_duty 1650  
               PWM_config@canal 00B5                     _EUSART_Init 07E8                      _ADC_Change 15FA  
                    _ADC_Select 0907           __end_of_Recibir_Texto 1507                      _EECON1bits 018C  
                     isr@buffer 0190                        _Selector 01E6                       isr@numStr 01C2  
                   ??__Umul8_16 0072              __end_of__stringtab 0810           __end_of_string_to_int 13CC  
                      ___xxtofl 0A30                 ___lwdiv@divisor 0070                 ___lwdiv@counter 0077  
                      __ptext10 15FA                        __ptext11 0907                        __ptext20 0CBB  
                      __ptext12 0040                        __ptext21 1479                        __ptext13 13BC  
                      __ptext30 1507                        __ptext22 0AE8                        __ptext14 1785  
                      __ptext31 1453                        __ptext23 0502                        __ptext15 13DD  
                      __ptext32 13EF                        __ptext24 140A                        __ptext16 142E  
                      __ptext33 08F0                        __ptext25 1717                        __ptext17 0982  
                      __ptext26 153E                        __ptext18 0A30                        __ptext27 15B6  
                      __ptext19 075A                        __ptext28 14D1                        __ptext29 1650  
                 ?_EEPROM_Write 0070                        atoi@sign 007A                      _INTCONbits 000B  
                      itoa@base 0026                        isdigit@c 0071                  ??_EEPROM_Write 0071  
                   ?_ADC_Change 0070                        intlevel1 0000                ___lwmod@dividend 0072  
                  ?_EEPROM_Read 0070                     ?_ADC_Select 0110                ??_ADC_Isr_Enable 00B5  
                     stringcode 080A                      _OSCCONbits 008F                string_to_int@str 0022  
 __end_of_EUSART_Disable_RX_Isr 13A6   __end_of_EUSART_Disable_TX_Isr 13AA          Recibir_Texto@maxLength 0070  
                      utoa@base 007A          __Umul8_16@multiplicand 0070                 ___lwmod@divisor 0070  
                   _PSTRCONbits 009D                 ___lwmod@counter 0075                        stringdir 080A  
                      stringtab 0800               EEPROM_Read@adress 0070                   ___fladd@signs 0064  
       ?_PWM_Mux_Channel_Select 0070                    ___fladd@aexp 0065                    ___fladd@bexp 0066  
          __Umul8_16@multiplier 0078               __Umul8_16@product 0074  
